
LCD_ILI9341_ESE_323.elf:     file format elf32-avr

Sections:
Idx Name          Size      VMA       LMA       File off  Algn
  0 .text         00002dfe  00000000  00000000  00000094  2**1
                  CONTENTS, ALLOC, LOAD, READONLY, CODE
  1 .data         00000024  00802000  00002dfe  00002e92  2**0
                  CONTENTS, ALLOC, LOAD, DATA
  2 .bss          00000297  00802024  00802024  00002eb6  2**0
                  ALLOC
  3 .comment      0000005c  00000000  00000000  00002eb6  2**0
                  CONTENTS, READONLY
  4 .note.gnu.avr.deviceinfo 00000040  00000000  00000000  00002f14  2**2
                  CONTENTS, READONLY
  5 .debug_aranges 00000168  00000000  00000000  00002f54  2**0
                  CONTENTS, READONLY, DEBUGGING
  6 .debug_info   00004a98  00000000  00000000  000030bc  2**0
                  CONTENTS, READONLY, DEBUGGING
  7 .debug_abbrev 00002287  00000000  00000000  00007b54  2**0
                  CONTENTS, READONLY, DEBUGGING
  8 .debug_line   00001750  00000000  00000000  00009ddb  2**0
                  CONTENTS, READONLY, DEBUGGING
  9 .debug_frame  0000041c  00000000  00000000  0000b52c  2**2
                  CONTENTS, READONLY, DEBUGGING
 10 .debug_str    00001a61  00000000  00000000  0000b948  2**0
                  CONTENTS, READONLY, DEBUGGING
 11 .debug_loc    000015dc  00000000  00000000  0000d3a9  2**0
                  CONTENTS, READONLY, DEBUGGING
 12 .debug_ranges 00000230  00000000  00000000  0000e985  2**0
                  CONTENTS, READONLY, DEBUGGING

Disassembly of section .text:

00000000 <__vectors>:
       0:	0c 94 64 03 	jmp	0x6c8	; 0x6c8 <__ctors_end>
       4:	0c 94 81 03 	jmp	0x702	; 0x702 <__bad_interrupt>
       8:	0c 94 81 03 	jmp	0x702	; 0x702 <__bad_interrupt>
       c:	0c 94 81 03 	jmp	0x702	; 0x702 <__bad_interrupt>
      10:	0c 94 81 03 	jmp	0x702	; 0x702 <__bad_interrupt>
      14:	0c 94 81 03 	jmp	0x702	; 0x702 <__bad_interrupt>
      18:	0c 94 81 03 	jmp	0x702	; 0x702 <__bad_interrupt>
      1c:	0c 94 81 03 	jmp	0x702	; 0x702 <__bad_interrupt>
      20:	0c 94 81 03 	jmp	0x702	; 0x702 <__bad_interrupt>
      24:	0c 94 81 03 	jmp	0x702	; 0x702 <__bad_interrupt>
      28:	0c 94 81 03 	jmp	0x702	; 0x702 <__bad_interrupt>
      2c:	0c 94 81 03 	jmp	0x702	; 0x702 <__bad_interrupt>
      30:	0c 94 81 03 	jmp	0x702	; 0x702 <__bad_interrupt>
      34:	0c 94 81 03 	jmp	0x702	; 0x702 <__bad_interrupt>
      38:	0c 94 81 03 	jmp	0x702	; 0x702 <__bad_interrupt>
      3c:	0c 94 81 03 	jmp	0x702	; 0x702 <__bad_interrupt>
      40:	0c 94 81 03 	jmp	0x702	; 0x702 <__bad_interrupt>
      44:	0c 94 81 03 	jmp	0x702	; 0x702 <__bad_interrupt>
      48:	0c 94 81 03 	jmp	0x702	; 0x702 <__bad_interrupt>
      4c:	0c 94 81 03 	jmp	0x702	; 0x702 <__bad_interrupt>
      50:	0c 94 81 03 	jmp	0x702	; 0x702 <__bad_interrupt>
      54:	0c 94 81 03 	jmp	0x702	; 0x702 <__bad_interrupt>
      58:	0c 94 81 03 	jmp	0x702	; 0x702 <__bad_interrupt>
      5c:	0c 94 81 03 	jmp	0x702	; 0x702 <__bad_interrupt>
      60:	0c 94 81 03 	jmp	0x702	; 0x702 <__bad_interrupt>
      64:	0c 94 81 03 	jmp	0x702	; 0x702 <__bad_interrupt>
      68:	0c 94 81 03 	jmp	0x702	; 0x702 <__bad_interrupt>
      6c:	0c 94 81 03 	jmp	0x702	; 0x702 <__bad_interrupt>
      70:	0c 94 81 03 	jmp	0x702	; 0x702 <__bad_interrupt>
      74:	0c 94 81 03 	jmp	0x702	; 0x702 <__bad_interrupt>
      78:	0c 94 81 03 	jmp	0x702	; 0x702 <__bad_interrupt>
      7c:	0c 94 81 03 	jmp	0x702	; 0x702 <__bad_interrupt>
      80:	0c 94 81 03 	jmp	0x702	; 0x702 <__bad_interrupt>
      84:	0c 94 81 03 	jmp	0x702	; 0x702 <__bad_interrupt>
      88:	0c 94 81 03 	jmp	0x702	; 0x702 <__bad_interrupt>
      8c:	0c 94 81 03 	jmp	0x702	; 0x702 <__bad_interrupt>
      90:	0c 94 81 03 	jmp	0x702	; 0x702 <__bad_interrupt>
      94:	0c 94 81 03 	jmp	0x702	; 0x702 <__bad_interrupt>
      98:	0c 94 81 03 	jmp	0x702	; 0x702 <__bad_interrupt>
      9c:	0c 94 81 03 	jmp	0x702	; 0x702 <__bad_interrupt>
      a0:	0c 94 81 03 	jmp	0x702	; 0x702 <__bad_interrupt>
      a4:	0c 94 81 03 	jmp	0x702	; 0x702 <__bad_interrupt>
      a8:	0c 94 81 03 	jmp	0x702	; 0x702 <__bad_interrupt>
      ac:	05 a8       	ldd	r0, Z+53	; 0x35
      ae:	4c cd       	rjmp	.-1384   	; 0xfffffb48 <__eeprom_end+0xff7efb48>
      b0:	b2 d4       	rcall	.+2404   	; 0xa16 <setAddress+0x56>
      b2:	4e b9       	out	0x0e, r20	; 14
      b4:	38 36       	cpi	r19, 0x68	; 104
      b6:	a9 02       	muls	r26, r25
      b8:	0c 50       	subi	r16, 0x0C	; 12
      ba:	b9 91       	ld	r27, Y+
      bc:	86 88       	ldd	r8, Z+22	; 0x16
      be:	08 3c       	cpi	r16, 0xC8	; 200
      c0:	a6 aa       	std	Z+54, r10	; 0x36
      c2:	aa 2a       	or	r10, r26
      c4:	be 00       	.word	0x00be	; ????
      c6:	00 00       	nop
      c8:	80 3f       	cpi	r24, 0xF0	; 240

000000ca <__trampolines_end>:
      ca:	00 00       	nop
      cc:	00 00       	nop
      ce:	00 3e       	cpi	r16, 0xE0	; 224
      d0:	5b 4f       	sbci	r21, 0xFB	; 251
      d2:	5b 3e       	cpi	r21, 0xEB	; 235
      d4:	3e 6b       	ori	r19, 0xBE	; 190
      d6:	4f 6b       	ori	r20, 0xBF	; 191
      d8:	3e 1c       	adc	r3, r14
      da:	3e 7c       	andi	r19, 0xCE	; 206
      dc:	3e 1c       	adc	r3, r14
      de:	18 3c       	cpi	r17, 0xC8	; 200
      e0:	7e 3c       	cpi	r23, 0xCE	; 206
      e2:	18 1c       	adc	r1, r8
      e4:	57 7d       	andi	r21, 0xD7	; 215
      e6:	57 1c       	adc	r5, r7
      e8:	1c 5e       	subi	r17, 0xEC	; 236
      ea:	7f 5e       	subi	r23, 0xEF	; 239
      ec:	1c 00       	.word	0x001c	; ????
      ee:	18 3c       	cpi	r17, 0xC8	; 200
      f0:	18 00       	.word	0x0018	; ????
      f2:	ff e7       	ldi	r31, 0x7F	; 127
      f4:	c3 e7       	ldi	r28, 0x73	; 115
      f6:	ff 00       	.word	0x00ff	; ????
      f8:	18 24       	eor	r1, r8
      fa:	18 00       	.word	0x0018	; ????
      fc:	ff e7       	ldi	r31, 0x7F	; 127
      fe:	db e7       	ldi	r29, 0x7B	; 123
     100:	ff 30       	cpi	r31, 0x0F	; 15
     102:	48 3a       	cpi	r20, 0xA8	; 168
     104:	06 0e       	add	r0, r22
     106:	26 29       	or	r18, r6
     108:	79 29       	or	r23, r9
     10a:	26 40       	sbci	r18, 0x06	; 6
     10c:	7f 05       	cpc	r23, r15
     10e:	05 07       	cpc	r16, r21
     110:	40 7f       	andi	r20, 0xF0	; 240
     112:	05 25       	eor	r16, r5
     114:	3f 5a       	subi	r19, 0xAF	; 175
     116:	3c e7       	ldi	r19, 0x7C	; 124
     118:	3c 5a       	subi	r19, 0xAC	; 172
     11a:	7f 3e       	cpi	r23, 0xEF	; 239
     11c:	1c 1c       	adc	r1, r12
     11e:	08 08       	sbc	r0, r8
     120:	1c 1c       	adc	r1, r12
     122:	3e 7f       	andi	r19, 0xFE	; 254
     124:	14 22       	and	r1, r20
     126:	7f 22       	and	r7, r31
     128:	14 5f       	subi	r17, 0xF4	; 244
     12a:	5f 00       	.word	0x005f	; ????
     12c:	5f 5f       	subi	r21, 0xFF	; 255
     12e:	06 09       	sbc	r16, r6
     130:	7f 01       	movw	r14, r30
     132:	7f 00       	.word	0x007f	; ????
     134:	66 89       	ldd	r22, Z+22	; 0x16
     136:	95 6a       	ori	r25, 0xA5	; 165
     138:	60 60       	ori	r22, 0x00	; 0
     13a:	60 60       	ori	r22, 0x00	; 0
     13c:	60 94       	com	r6
     13e:	a2 ff       	sbrs	r26, 2
     140:	a2 94       	swap	r10
     142:	08 04       	cpc	r0, r8
     144:	7e 04       	cpc	r7, r14
     146:	08 10       	cpse	r0, r8
     148:	20 7e       	andi	r18, 0xE0	; 224
     14a:	20 10       	cpse	r2, r0
     14c:	08 08       	sbc	r0, r8
     14e:	2a 1c       	adc	r2, r10
     150:	08 08       	sbc	r0, r8
     152:	1c 2a       	or	r1, r28
     154:	08 08       	sbc	r0, r8
     156:	1e 10       	cpse	r1, r14
     158:	10 10       	cpse	r1, r0
     15a:	10 0c       	add	r1, r0
     15c:	1e 0c       	add	r1, r14
     15e:	1e 0c       	add	r1, r14
     160:	30 38       	cpi	r19, 0x80	; 128
     162:	3e 38       	cpi	r19, 0x8E	; 142
     164:	30 06       	cpc	r3, r16
     166:	0e 3e       	cpi	r16, 0xEE	; 238
     168:	0e 06       	cpc	r0, r30
     16a:	00 00       	nop
     16c:	00 00       	nop
     16e:	00 00       	nop
     170:	00 5f       	subi	r16, 0xF0	; 240
     172:	00 00       	nop
     174:	00 07       	cpc	r16, r16
     176:	00 07       	cpc	r16, r16
     178:	00 14       	cp	r0, r0
     17a:	7f 14       	cp	r7, r15
     17c:	7f 14       	cp	r7, r15
     17e:	24 2a       	or	r2, r20
     180:	7f 2a       	or	r7, r31
     182:	12 23       	and	r17, r18
     184:	13 08       	sbc	r1, r3
     186:	64 62       	ori	r22, 0x24	; 36
     188:	36 49       	sbci	r19, 0x96	; 150
     18a:	56 20       	and	r5, r6
     18c:	50 00       	.word	0x0050	; ????
     18e:	08 07       	cpc	r16, r24
     190:	03 00       	.word	0x0003	; ????
     192:	00 1c       	adc	r0, r0
     194:	22 41       	sbci	r18, 0x12	; 18
     196:	00 00       	nop
     198:	41 22       	and	r4, r17
     19a:	1c 00       	.word	0x001c	; ????
     19c:	2a 1c       	adc	r2, r10
     19e:	7f 1c       	adc	r7, r15
     1a0:	2a 08       	sbc	r2, r10
     1a2:	08 3e       	cpi	r16, 0xE8	; 232
     1a4:	08 08       	sbc	r0, r8
     1a6:	00 80       	ld	r0, Z
     1a8:	70 30       	cpi	r23, 0x00	; 0
     1aa:	00 08       	sbc	r0, r0
     1ac:	08 08       	sbc	r0, r8
     1ae:	08 08       	sbc	r0, r8
     1b0:	00 00       	nop
     1b2:	60 60       	ori	r22, 0x00	; 0
     1b4:	00 20       	and	r0, r0
     1b6:	10 08       	sbc	r1, r0
     1b8:	04 02       	muls	r16, r20
     1ba:	3e 51       	subi	r19, 0x1E	; 30
     1bc:	49 45       	sbci	r20, 0x59	; 89
     1be:	3e 00       	.word	0x003e	; ????
     1c0:	42 7f       	andi	r20, 0xF2	; 242
     1c2:	40 00       	.word	0x0040	; ????
     1c4:	72 49       	sbci	r23, 0x92	; 146
     1c6:	49 49       	sbci	r20, 0x99	; 153
     1c8:	46 21       	and	r20, r6
     1ca:	41 49       	sbci	r20, 0x91	; 145
     1cc:	4d 33       	cpi	r20, 0x3D	; 61
     1ce:	18 14       	cp	r1, r8
     1d0:	12 7f       	andi	r17, 0xF2	; 242
     1d2:	10 27       	eor	r17, r16
     1d4:	45 45       	sbci	r20, 0x55	; 85
     1d6:	45 39       	cpi	r20, 0x95	; 149
     1d8:	3c 4a       	sbci	r19, 0xAC	; 172
     1da:	49 49       	sbci	r20, 0x99	; 153
     1dc:	31 41       	sbci	r19, 0x11	; 17
     1de:	21 11       	cpse	r18, r1
     1e0:	09 07       	cpc	r16, r25
     1e2:	36 49       	sbci	r19, 0x96	; 150
     1e4:	49 49       	sbci	r20, 0x99	; 153
     1e6:	36 46       	sbci	r19, 0x66	; 102
     1e8:	49 49       	sbci	r20, 0x99	; 153
     1ea:	29 1e       	adc	r2, r25
     1ec:	00 00       	nop
     1ee:	14 00       	.word	0x0014	; ????
     1f0:	00 00       	nop
     1f2:	40 34       	cpi	r20, 0x40	; 64
     1f4:	00 00       	nop
     1f6:	00 08       	sbc	r0, r0
     1f8:	14 22       	and	r1, r20
     1fa:	41 14       	cp	r4, r1
     1fc:	14 14       	cp	r1, r4
     1fe:	14 14       	cp	r1, r4
     200:	00 41       	sbci	r16, 0x10	; 16
     202:	22 14       	cp	r2, r2
     204:	08 02       	muls	r16, r24
     206:	01 59       	subi	r16, 0x91	; 145
     208:	09 06       	cpc	r0, r25
     20a:	3e 41       	sbci	r19, 0x1E	; 30
     20c:	5d 59       	subi	r21, 0x9D	; 157
     20e:	4e 7c       	andi	r20, 0xCE	; 206
     210:	12 11       	cpse	r17, r2
     212:	12 7c       	andi	r17, 0xC2	; 194
     214:	7f 49       	sbci	r23, 0x9F	; 159
     216:	49 49       	sbci	r20, 0x99	; 153
     218:	36 3e       	cpi	r19, 0xE6	; 230
     21a:	41 41       	sbci	r20, 0x11	; 17
     21c:	41 22       	and	r4, r17
     21e:	7f 41       	sbci	r23, 0x1F	; 31
     220:	41 41       	sbci	r20, 0x11	; 17
     222:	3e 7f       	andi	r19, 0xFE	; 254
     224:	49 49       	sbci	r20, 0x99	; 153
     226:	49 41       	sbci	r20, 0x19	; 25
     228:	7f 09       	sbc	r23, r15
     22a:	09 09       	sbc	r16, r9
     22c:	01 3e       	cpi	r16, 0xE1	; 225
     22e:	41 41       	sbci	r20, 0x11	; 17
     230:	51 73       	andi	r21, 0x31	; 49
     232:	7f 08       	sbc	r7, r15
     234:	08 08       	sbc	r0, r8
     236:	7f 00       	.word	0x007f	; ????
     238:	41 7f       	andi	r20, 0xF1	; 241
     23a:	41 00       	.word	0x0041	; ????
     23c:	20 40       	sbci	r18, 0x00	; 0
     23e:	41 3f       	cpi	r20, 0xF1	; 241
     240:	01 7f       	andi	r16, 0xF1	; 241
     242:	08 14       	cp	r0, r8
     244:	22 41       	sbci	r18, 0x12	; 18
     246:	7f 40       	sbci	r23, 0x0F	; 15
     248:	40 40       	sbci	r20, 0x00	; 0
     24a:	40 7f       	andi	r20, 0xF0	; 240
     24c:	02 1c       	adc	r0, r2
     24e:	02 7f       	andi	r16, 0xF2	; 242
     250:	7f 04       	cpc	r7, r15
     252:	08 10       	cpse	r0, r8
     254:	7f 3e       	cpi	r23, 0xEF	; 239
     256:	41 41       	sbci	r20, 0x11	; 17
     258:	41 3e       	cpi	r20, 0xE1	; 225
     25a:	7f 09       	sbc	r23, r15
     25c:	09 09       	sbc	r16, r9
     25e:	06 3e       	cpi	r16, 0xE6	; 230
     260:	41 51       	subi	r20, 0x11	; 17
     262:	21 5e       	subi	r18, 0xE1	; 225
     264:	7f 09       	sbc	r23, r15
     266:	19 29       	or	r17, r9
     268:	46 26       	eor	r4, r22
     26a:	49 49       	sbci	r20, 0x99	; 153
     26c:	49 32       	cpi	r20, 0x29	; 41
     26e:	03 01       	movw	r0, r6
     270:	7f 01       	movw	r14, r30
     272:	03 3f       	cpi	r16, 0xF3	; 243
     274:	40 40       	sbci	r20, 0x00	; 0
     276:	40 3f       	cpi	r20, 0xF0	; 240
     278:	1f 20       	and	r1, r15
     27a:	40 20       	and	r4, r0
     27c:	1f 3f       	cpi	r17, 0xFF	; 255
     27e:	40 38       	cpi	r20, 0x80	; 128
     280:	40 3f       	cpi	r20, 0xF0	; 240
     282:	63 14       	cp	r6, r3
     284:	08 14       	cp	r0, r8
     286:	63 03       	mulsu	r22, r19
     288:	04 78       	andi	r16, 0x84	; 132
     28a:	04 03       	mulsu	r16, r20
     28c:	61 59       	subi	r22, 0x91	; 145
     28e:	49 4d       	sbci	r20, 0xD9	; 217
     290:	43 00       	.word	0x0043	; ????
     292:	7f 41       	sbci	r23, 0x1F	; 31
     294:	41 41       	sbci	r20, 0x11	; 17
     296:	02 04       	cpc	r0, r2
     298:	08 10       	cpse	r0, r8
     29a:	20 00       	.word	0x0020	; ????
     29c:	41 41       	sbci	r20, 0x11	; 17
     29e:	41 7f       	andi	r20, 0xF1	; 241
     2a0:	04 02       	muls	r16, r20
     2a2:	01 02       	muls	r16, r17
     2a4:	04 40       	sbci	r16, 0x04	; 4
     2a6:	40 40       	sbci	r20, 0x00	; 0
     2a8:	40 40       	sbci	r20, 0x00	; 0
     2aa:	00 03       	mulsu	r16, r16
     2ac:	07 08       	sbc	r0, r7
     2ae:	00 20       	and	r0, r0
     2b0:	54 54       	subi	r21, 0x44	; 68
     2b2:	78 40       	sbci	r23, 0x08	; 8
     2b4:	7f 28       	or	r7, r15
     2b6:	44 44       	sbci	r20, 0x44	; 68
     2b8:	38 38       	cpi	r19, 0x88	; 136
     2ba:	44 44       	sbci	r20, 0x44	; 68
     2bc:	44 28       	or	r4, r4
     2be:	38 44       	sbci	r19, 0x48	; 72
     2c0:	44 28       	or	r4, r4
     2c2:	7f 38       	cpi	r23, 0x8F	; 143
     2c4:	54 54       	subi	r21, 0x44	; 68
     2c6:	54 18       	sub	r5, r4
     2c8:	00 08       	sbc	r0, r0
     2ca:	7e 09       	sbc	r23, r14
     2cc:	02 18       	sub	r0, r2
     2ce:	a4 a4       	ldd	r10, Z+44	; 0x2c
     2d0:	9c 78       	andi	r25, 0x8C	; 140
     2d2:	7f 08       	sbc	r7, r15
     2d4:	04 04       	cpc	r0, r4
     2d6:	78 00       	.word	0x0078	; ????
     2d8:	44 7d       	andi	r20, 0xD4	; 212
     2da:	40 00       	.word	0x0040	; ????
     2dc:	20 40       	sbci	r18, 0x00	; 0
     2de:	40 3d       	cpi	r20, 0xD0	; 208
     2e0:	00 7f       	andi	r16, 0xF0	; 240
     2e2:	10 28       	or	r1, r0
     2e4:	44 00       	.word	0x0044	; ????
     2e6:	00 41       	sbci	r16, 0x10	; 16
     2e8:	7f 40       	sbci	r23, 0x0F	; 15
     2ea:	00 7c       	andi	r16, 0xC0	; 192
     2ec:	04 78       	andi	r16, 0x84	; 132
     2ee:	04 78       	andi	r16, 0x84	; 132
     2f0:	7c 08       	sbc	r7, r12
     2f2:	04 04       	cpc	r0, r4
     2f4:	78 38       	cpi	r23, 0x88	; 136
     2f6:	44 44       	sbci	r20, 0x44	; 68
     2f8:	44 38       	cpi	r20, 0x84	; 132
     2fa:	fc 18       	sub	r15, r12
     2fc:	24 24       	eor	r2, r4
     2fe:	18 18       	sub	r1, r8
     300:	24 24       	eor	r2, r4
     302:	18 fc       	.word	0xfc18	; ????
     304:	7c 08       	sbc	r7, r12
     306:	04 04       	cpc	r0, r4
     308:	08 48       	sbci	r16, 0x88	; 136
     30a:	54 54       	subi	r21, 0x44	; 68
     30c:	54 24       	eor	r5, r4
     30e:	04 04       	cpc	r0, r4
     310:	3f 44       	sbci	r19, 0x4F	; 79
     312:	24 3c       	cpi	r18, 0xC4	; 196
     314:	40 40       	sbci	r20, 0x00	; 0
     316:	20 7c       	andi	r18, 0xC0	; 192
     318:	1c 20       	and	r1, r12
     31a:	40 20       	and	r4, r0
     31c:	1c 3c       	cpi	r17, 0xCC	; 204
     31e:	40 30       	cpi	r20, 0x00	; 0
     320:	40 3c       	cpi	r20, 0xC0	; 192
     322:	44 28       	or	r4, r4
     324:	10 28       	or	r1, r0
     326:	44 4c       	sbci	r20, 0xC4	; 196
     328:	90 90 90 7c 	lds	r9, 0x7C90
     32c:	44 64       	ori	r20, 0x44	; 68
     32e:	54 4c       	sbci	r21, 0xC4	; 196
     330:	44 00       	.word	0x0044	; ????
     332:	08 36       	cpi	r16, 0x68	; 104
     334:	41 00       	.word	0x0041	; ????
     336:	00 00       	nop
     338:	77 00       	.word	0x0077	; ????
     33a:	00 00       	nop
     33c:	41 36       	cpi	r20, 0x61	; 97
     33e:	08 00       	.word	0x0008	; ????
     340:	02 01       	movw	r0, r4
     342:	02 04       	cpc	r0, r2
     344:	02 3c       	cpi	r16, 0xC2	; 194
     346:	26 23       	and	r18, r22
     348:	26 3c       	cpi	r18, 0xC6	; 198
     34a:	1e a1       	ldd	r17, Y+38	; 0x26
     34c:	a1 61       	ori	r26, 0x11	; 17
     34e:	12 3a       	cpi	r17, 0xA2	; 162
     350:	40 40       	sbci	r20, 0x00	; 0
     352:	20 7a       	andi	r18, 0xA0	; 160
     354:	38 54       	subi	r19, 0x48	; 72
     356:	54 55       	subi	r21, 0x54	; 84
     358:	59 21       	and	r21, r9
     35a:	55 55       	subi	r21, 0x55	; 85
     35c:	79 41       	sbci	r23, 0x19	; 25
     35e:	22 54       	subi	r18, 0x42	; 66
     360:	54 78       	andi	r21, 0x84	; 132
     362:	42 21       	and	r20, r2
     364:	55 54       	subi	r21, 0x45	; 69
     366:	78 40       	sbci	r23, 0x08	; 8
     368:	20 54       	subi	r18, 0x40	; 64
     36a:	55 79       	andi	r21, 0x95	; 149
     36c:	40 0c       	add	r4, r0
     36e:	1e 52       	subi	r17, 0x2E	; 46
     370:	72 12       	cpse	r7, r18
     372:	39 55       	subi	r19, 0x59	; 89
     374:	55 55       	subi	r21, 0x55	; 85
     376:	59 39       	cpi	r21, 0x99	; 153
     378:	54 54       	subi	r21, 0x44	; 68
     37a:	54 59       	subi	r21, 0x94	; 148
     37c:	39 55       	subi	r19, 0x59	; 89
     37e:	54 54       	subi	r21, 0x44	; 68
     380:	58 00       	.word	0x0058	; ????
     382:	00 45       	sbci	r16, 0x50	; 80
     384:	7c 41       	sbci	r23, 0x1C	; 28
     386:	00 02       	muls	r16, r16
     388:	45 7d       	andi	r20, 0xD5	; 213
     38a:	42 00       	.word	0x0042	; ????
     38c:	01 45       	sbci	r16, 0x51	; 81
     38e:	7c 40       	sbci	r23, 0x0C	; 12
     390:	7d 12       	cpse	r7, r29
     392:	11 12       	cpse	r1, r17
     394:	7d f0       	brhs	.+30     	; 0x3b4 <__trampolines_end+0x2ea>
     396:	28 25       	eor	r18, r8
     398:	28 f0       	brcs	.+10     	; 0x3a4 <__trampolines_end+0x2da>
     39a:	7c 54       	subi	r23, 0x4C	; 76
     39c:	55 45       	sbci	r21, 0x55	; 85
     39e:	00 20       	and	r0, r0
     3a0:	54 54       	subi	r21, 0x44	; 68
     3a2:	7c 54       	subi	r23, 0x4C	; 76
     3a4:	7c 0a       	sbc	r7, r28
     3a6:	09 7f       	andi	r16, 0xF9	; 249
     3a8:	49 32       	cpi	r20, 0x29	; 41
     3aa:	49 49       	sbci	r20, 0x99	; 153
     3ac:	49 32       	cpi	r20, 0x29	; 41
     3ae:	3a 44       	sbci	r19, 0x4A	; 74
     3b0:	44 44       	sbci	r20, 0x44	; 68
     3b2:	3a 32       	cpi	r19, 0x2A	; 42
     3b4:	4a 48       	sbci	r20, 0x8A	; 138
     3b6:	48 30       	cpi	r20, 0x08	; 8
     3b8:	3a 41       	sbci	r19, 0x1A	; 26
     3ba:	41 21       	and	r20, r1
     3bc:	7a 3a       	cpi	r23, 0xAA	; 170
     3be:	42 40       	sbci	r20, 0x02	; 2
     3c0:	20 78       	andi	r18, 0x80	; 128
     3c2:	00 9d       	mul	r16, r0
     3c4:	a0 a0       	ldd	r10, Z+32	; 0x20
     3c6:	7d 3d       	cpi	r23, 0xDD	; 221
     3c8:	42 42       	sbci	r20, 0x22	; 34
     3ca:	42 3d       	cpi	r20, 0xD2	; 210
     3cc:	3d 40       	sbci	r19, 0x0D	; 13
     3ce:	40 40       	sbci	r20, 0x00	; 0
     3d0:	3d 3c       	cpi	r19, 0xCD	; 205
     3d2:	24 ff       	sbrs	r18, 4
     3d4:	24 24       	eor	r2, r4
     3d6:	48 7e       	andi	r20, 0xE8	; 232
     3d8:	49 43       	sbci	r20, 0x39	; 57
     3da:	66 2b       	or	r22, r22
     3dc:	2f fc       	.word	0xfc2f	; ????
     3de:	2f 2b       	or	r18, r31
     3e0:	ff 09       	sbc	r31, r15
     3e2:	29 f6       	brne	.-118    	; 0x36e <__trampolines_end+0x2a4>
     3e4:	20 c0       	rjmp	.+64     	; 0x426 <__LOCK_REGION_LENGTH__+0x26>
     3e6:	88 7e       	andi	r24, 0xE8	; 232
     3e8:	09 03       	fmul	r16, r17
     3ea:	20 54       	subi	r18, 0x40	; 64
     3ec:	54 79       	andi	r21, 0x94	; 148
     3ee:	41 00       	.word	0x0041	; ????
     3f0:	00 44       	sbci	r16, 0x40	; 64
     3f2:	7d 41       	sbci	r23, 0x1D	; 29
     3f4:	30 48       	sbci	r19, 0x80	; 128
     3f6:	48 4a       	sbci	r20, 0xA8	; 168
     3f8:	32 38       	cpi	r19, 0x82	; 130
     3fa:	40 40       	sbci	r20, 0x00	; 0
     3fc:	22 7a       	andi	r18, 0xA2	; 162
     3fe:	00 7a       	andi	r16, 0xA0	; 160
     400:	0a 0a       	sbc	r0, r26
     402:	72 7d       	andi	r23, 0xD2	; 210
     404:	0d 19       	sub	r16, r13
     406:	31 7d       	andi	r19, 0xD1	; 209
     408:	26 29       	or	r18, r6
     40a:	29 2f       	mov	r18, r25
     40c:	28 26       	eor	r2, r24
     40e:	29 29       	or	r18, r9
     410:	29 26       	eor	r2, r25
     412:	30 48       	sbci	r19, 0x80	; 128
     414:	4d 40       	sbci	r20, 0x0D	; 13
     416:	20 38       	cpi	r18, 0x80	; 128
     418:	08 08       	sbc	r0, r8
     41a:	08 08       	sbc	r0, r8
     41c:	08 08       	sbc	r0, r8
     41e:	08 08       	sbc	r0, r8
     420:	38 2f       	mov	r19, r24
     422:	10 c8       	rjmp	.-4064   	; 0xfffff444 <__eeprom_end+0xff7ef444>
     424:	ac ba       	out	0x1c, r10	; 28
     426:	2f 10       	cpse	r2, r15
     428:	28 34       	cpi	r18, 0x48	; 72
     42a:	fa 00       	.word	0x00fa	; ????
     42c:	00 7b       	andi	r16, 0xB0	; 176
     42e:	00 00       	nop
     430:	08 14       	cp	r0, r8
     432:	2a 14       	cp	r2, r10
     434:	22 22       	and	r2, r18
     436:	14 2a       	or	r1, r20
     438:	14 08       	sbc	r1, r4
     43a:	aa 00       	.word	0x00aa	; ????
     43c:	55 00       	.word	0x0055	; ????
     43e:	aa aa       	std	Y+50, r10	; 0x32
     440:	55 aa       	std	Z+53, r5	; 0x35
     442:	55 aa       	std	Z+53, r5	; 0x35
     444:	00 00       	nop
     446:	00 ff       	sbrs	r16, 0
     448:	00 10       	cpse	r0, r0
     44a:	10 10       	cpse	r1, r0
     44c:	ff 00       	.word	0x00ff	; ????
     44e:	14 14       	cp	r1, r4
     450:	14 ff       	sbrs	r17, 4
     452:	00 10       	cpse	r0, r0
     454:	10 ff       	sbrs	r17, 0
     456:	00 ff       	sbrs	r16, 0
     458:	10 10       	cpse	r1, r0
     45a:	f0 10       	cpse	r15, r0
     45c:	f0 14       	cp	r15, r0
     45e:	14 14       	cp	r1, r4
     460:	fc 00       	.word	0x00fc	; ????
     462:	14 14       	cp	r1, r4
     464:	f7 00       	.word	0x00f7	; ????
     466:	ff 00       	.word	0x00ff	; ????
     468:	00 ff       	sbrs	r16, 0
     46a:	00 ff       	sbrs	r16, 0
     46c:	14 14       	cp	r1, r4
     46e:	f4 04       	cpc	r15, r4
     470:	fc 14       	cp	r15, r12
     472:	14 17       	cp	r17, r20
     474:	10 1f       	adc	r17, r16
     476:	10 10       	cpse	r1, r0
     478:	1f 10       	cpse	r1, r15
     47a:	1f 14       	cp	r1, r15
     47c:	14 14       	cp	r1, r4
     47e:	1f 00       	.word	0x001f	; ????
     480:	10 10       	cpse	r1, r0
     482:	10 f0       	brcs	.+4      	; 0x488 <__LOCK_REGION_LENGTH__+0x88>
     484:	00 00       	nop
     486:	00 00       	nop
     488:	1f 10       	cpse	r1, r15
     48a:	10 10       	cpse	r1, r0
     48c:	10 1f       	adc	r17, r16
     48e:	10 10       	cpse	r1, r0
     490:	10 10       	cpse	r1, r0
     492:	f0 10       	cpse	r15, r0
     494:	00 00       	nop
     496:	00 ff       	sbrs	r16, 0
     498:	10 10       	cpse	r1, r0
     49a:	10 10       	cpse	r1, r0
     49c:	10 10       	cpse	r1, r0
     49e:	10 10       	cpse	r1, r0
     4a0:	10 ff       	sbrs	r17, 0
     4a2:	10 00       	.word	0x0010	; ????
     4a4:	00 00       	nop
     4a6:	ff 14       	cp	r15, r15
     4a8:	00 00       	nop
     4aa:	ff 00       	.word	0x00ff	; ????
     4ac:	ff 00       	.word	0x00ff	; ????
     4ae:	00 1f       	adc	r16, r16
     4b0:	10 17       	cp	r17, r16
     4b2:	00 00       	nop
     4b4:	fc 04       	cpc	r15, r12
     4b6:	f4 14       	cp	r15, r4
     4b8:	14 17       	cp	r17, r20
     4ba:	10 17       	cp	r17, r16
     4bc:	14 14       	cp	r1, r4
     4be:	f4 04       	cpc	r15, r4
     4c0:	f4 00       	.word	0x00f4	; ????
     4c2:	00 ff       	sbrs	r16, 0
     4c4:	00 f7       	brcc	.-64     	; 0x486 <__LOCK_REGION_LENGTH__+0x86>
     4c6:	14 14       	cp	r1, r4
     4c8:	14 14       	cp	r1, r4
     4ca:	14 14       	cp	r1, r4
     4cc:	14 f7       	brge	.-60     	; 0x492 <__LOCK_REGION_LENGTH__+0x92>
     4ce:	00 f7       	brcc	.-64     	; 0x490 <__LOCK_REGION_LENGTH__+0x90>
     4d0:	14 14       	cp	r1, r4
     4d2:	14 17       	cp	r17, r20
     4d4:	14 10       	cpse	r1, r4
     4d6:	10 1f       	adc	r17, r16
     4d8:	10 1f       	adc	r17, r16
     4da:	14 14       	cp	r1, r4
     4dc:	14 f4       	brge	.+4      	; 0x4e2 <__LOCK_REGION_LENGTH__+0xe2>
     4de:	14 10       	cpse	r1, r4
     4e0:	10 f0       	brcs	.+4      	; 0x4e6 <__LOCK_REGION_LENGTH__+0xe6>
     4e2:	10 f0       	brcs	.+4      	; 0x4e8 <__LOCK_REGION_LENGTH__+0xe8>
     4e4:	00 00       	nop
     4e6:	1f 10       	cpse	r1, r15
     4e8:	1f 00       	.word	0x001f	; ????
     4ea:	00 00       	nop
     4ec:	1f 14       	cp	r1, r15
     4ee:	00 00       	nop
     4f0:	00 fc       	sbrc	r0, 0
     4f2:	14 00       	.word	0x0014	; ????
     4f4:	00 f0       	brcs	.+0      	; 0x4f6 <__LOCK_REGION_LENGTH__+0xf6>
     4f6:	10 f0       	brcs	.+4      	; 0x4fc <__LOCK_REGION_LENGTH__+0xfc>
     4f8:	10 10       	cpse	r1, r0
     4fa:	ff 10       	cpse	r15, r15
     4fc:	ff 14       	cp	r15, r15
     4fe:	14 14       	cp	r1, r4
     500:	ff 14       	cp	r15, r15
     502:	10 10       	cpse	r1, r0
     504:	10 1f       	adc	r17, r16
     506:	00 00       	nop
     508:	00 00       	nop
     50a:	f0 10       	cpse	r15, r0
     50c:	ff ff       	.word	0xffff	; ????
     50e:	ff ff       	.word	0xffff	; ????
     510:	ff f0       	brie	.+62     	; 0x550 <__LOCK_REGION_LENGTH__+0x150>
     512:	f0 f0       	brcs	.+60     	; 0x550 <__LOCK_REGION_LENGTH__+0x150>
     514:	f0 f0       	brcs	.+60     	; 0x552 <__LOCK_REGION_LENGTH__+0x152>
     516:	ff ff       	.word	0xffff	; ????
     518:	ff 00       	.word	0x00ff	; ????
     51a:	00 00       	nop
     51c:	00 00       	nop
     51e:	ff ff       	.word	0xffff	; ????
     520:	0f 0f       	add	r16, r31
     522:	0f 0f       	add	r16, r31
     524:	0f 38       	cpi	r16, 0x8F	; 143
     526:	44 44       	sbci	r20, 0x44	; 68
     528:	38 44       	sbci	r19, 0x48	; 72
     52a:	fc 4a       	sbci	r31, 0xAC	; 172
     52c:	4a 4a       	sbci	r20, 0xAA	; 170
     52e:	34 7e       	andi	r19, 0xE4	; 228
     530:	02 02       	muls	r16, r18
     532:	06 06       	cpc	r0, r22
     534:	02 7e       	andi	r16, 0xE2	; 226
     536:	02 7e       	andi	r16, 0xE2	; 226
     538:	02 63       	ori	r16, 0x32	; 50
     53a:	55 49       	sbci	r21, 0x95	; 149
     53c:	41 63       	ori	r20, 0x31	; 49
     53e:	38 44       	sbci	r19, 0x48	; 72
     540:	44 3c       	cpi	r20, 0xC4	; 196
     542:	04 40       	sbci	r16, 0x04	; 4
     544:	7e 20       	and	r7, r14
     546:	1e 20       	and	r1, r14
     548:	06 02       	muls	r16, r22
     54a:	7e 02       	muls	r23, r30
     54c:	02 99       	sbic	0x00, 2	; 0
     54e:	a5 e7       	ldi	r26, 0x75	; 117
     550:	a5 99       	sbic	0x14, 5	; 20
     552:	1c 2a       	or	r1, r28
     554:	49 2a       	or	r4, r25
     556:	1c 4c       	sbci	r17, 0xCC	; 204
     558:	72 01       	movw	r14, r4
     55a:	72 4c       	sbci	r23, 0xC2	; 194
     55c:	30 4a       	sbci	r19, 0xA0	; 160
     55e:	4d 4d       	sbci	r20, 0xDD	; 221
     560:	30 30       	cpi	r19, 0x00	; 0
     562:	48 78       	andi	r20, 0x88	; 136
     564:	48 30       	cpi	r20, 0x08	; 8
     566:	bc 62       	ori	r27, 0x2C	; 44
     568:	5a 46       	sbci	r21, 0x6A	; 106
     56a:	3d 3e       	cpi	r19, 0xED	; 237
     56c:	49 49       	sbci	r20, 0x99	; 153
     56e:	49 00       	.word	0x0049	; ????
     570:	7e 01       	movw	r14, r28
     572:	01 01       	movw	r0, r2
     574:	7e 2a       	or	r7, r30
     576:	2a 2a       	or	r2, r26
     578:	2a 2a       	or	r2, r26
     57a:	44 44       	sbci	r20, 0x44	; 68
     57c:	5f 44       	sbci	r21, 0x4F	; 79
     57e:	44 40       	sbci	r20, 0x04	; 4
     580:	51 4a       	sbci	r21, 0xA1	; 161
     582:	44 40       	sbci	r20, 0x04	; 4
     584:	40 44       	sbci	r20, 0x40	; 64
     586:	4a 51       	subi	r20, 0x1A	; 26
     588:	40 00       	.word	0x0040	; ????
     58a:	00 ff       	sbrs	r16, 0
     58c:	01 03       	mulsu	r16, r17
     58e:	e0 80       	ld	r14, Z
     590:	ff 00       	.word	0x00ff	; ????
     592:	00 08       	sbc	r0, r0
     594:	08 6b       	ori	r16, 0xB8	; 184
     596:	6b 08       	sbc	r6, r11
     598:	36 12       	cpse	r3, r22
     59a:	36 24       	eor	r3, r6
     59c:	36 06       	cpc	r3, r22
     59e:	0f 09       	sbc	r16, r15
     5a0:	0f 06       	cpc	r0, r31
     5a2:	00 00       	nop
     5a4:	18 18       	sub	r1, r8
     5a6:	00 00       	nop
     5a8:	00 10       	cpse	r0, r0
     5aa:	10 00       	.word	0x0010	; ????
     5ac:	30 40       	sbci	r19, 0x00	; 0
     5ae:	ff 01       	movw	r30, r30
     5b0:	01 00       	.word	0x0001	; ????
     5b2:	1f 01       	movw	r2, r30
     5b4:	01 1e       	adc	r0, r17
     5b6:	00 19       	sub	r16, r0
     5b8:	1d 17       	cp	r17, r29
     5ba:	12 00       	.word	0x0012	; ????
     5bc:	3c 3c       	cpi	r19, 0xCC	; 204
     5be:	3c 3c       	cpi	r19, 0xCC	; 204
     5c0:	00 00       	nop
     5c2:	00 00       	nop
	...

000005c5 <__c.2242>:
     5c5:	6e 61 6e 00                                         nan.

000005c9 <__c.2240>:
     5c9:	69 6e 66 00 00 40 7a 10 f3 5a 00 a0 72 4e 18 09     inf..@z..Z..rN..
     5d9:	00 10 a5 d4 e8 00 00 e8 76 48 17 00 00 e4 0b 54     ........vH.....T
     5e9:	02 00 00 ca 9a 3b 00 00 00 e1 f5 05 00 00 80 96     .....;..........
     5f9:	98 00 00 00 40 42 0f 00 00 00 a0 86 01 00 00 00     ....@B..........
     609:	10 27 00 00 00 00 e8 03 00 00 00 00 64 00 00 00     .'..........d...
     619:	00 00 0a 00 00 00 00 00 01 00 00 00 00 00 2c 76     ..............,v
     629:	d8 88 dc 67 4f 08 23 df c1 df ae 59 e1 b1 b7 96     ...gO.#....Y....
     639:	e5 e3 e4 53 c6 3a e6 51 99 76 96 e8 e6 c2 84 26     ...S.:.Q.v.....&
     649:	eb 89 8c 9b 62 ed 40 7c 6f fc ef bc 9c 9f 40 f2     ....b.@|o.....@.
     659:	ba a5 6f a5 f4 90 05 5a 2a f7 5c 93 6b 6c f9 67     ..o....Z*.\.kl.g
     669:	6d c1 1b fc e0 e4 0d 47 fe f5 20 e6 b5 00 d0 ed     m......G.. .....
     679:	90 2e 03 00 94 35 77 05 00 80 84 1e 08 00 00 20     .....5w........ 
     689:	4e 0a 00 00 00 c8 0c 33 33 33 33 0f 98 6e 12 83     N......3333..n..
     699:	11 41 ef 8d 21 14 89 3b e6 55 16 cf fe e6 db 18     .A..!..;.U......
     6a9:	d1 84 4b 38 1b f7 7c 1d 90 1d a4 bb e4 24 20 32     ..K8..|......$ 2
     6b9:	84 72 5e 22 81 00 c9 f1 24 ec a1 e5 3d 27 00        .r^"....$...='.

000006c8 <__ctors_end>:
     6c8:	11 24       	eor	r1, r1
     6ca:	1f be       	out	0x3f, r1	; 63
     6cc:	cf ef       	ldi	r28, 0xFF	; 255
     6ce:	cd bf       	out	0x3d, r28	; 61
     6d0:	df e2       	ldi	r29, 0x2F	; 47
     6d2:	de bf       	out	0x3e, r29	; 62

000006d4 <__do_copy_data>:
     6d4:	10 e2       	ldi	r17, 0x20	; 32
     6d6:	a0 e0       	ldi	r26, 0x00	; 0
     6d8:	b0 e2       	ldi	r27, 0x20	; 32
     6da:	ee ef       	ldi	r30, 0xFE	; 254
     6dc:	fd e2       	ldi	r31, 0x2D	; 45
     6de:	02 c0       	rjmp	.+4      	; 0x6e4 <__do_copy_data+0x10>
     6e0:	05 90       	lpm	r0, Z+
     6e2:	0d 92       	st	X+, r0
     6e4:	a4 32       	cpi	r26, 0x24	; 36
     6e6:	b1 07       	cpc	r27, r17
     6e8:	d9 f7       	brne	.-10     	; 0x6e0 <__do_copy_data+0xc>

000006ea <__do_clear_bss>:
     6ea:	22 e2       	ldi	r18, 0x22	; 34
     6ec:	a4 e2       	ldi	r26, 0x24	; 36
     6ee:	b0 e2       	ldi	r27, 0x20	; 32
     6f0:	01 c0       	rjmp	.+2      	; 0x6f4 <.do_clear_bss_start>

000006f2 <.do_clear_bss_loop>:
     6f2:	1d 92       	st	X+, r1

000006f4 <.do_clear_bss_start>:
     6f4:	ab 3b       	cpi	r26, 0xBB	; 187
     6f6:	b2 07       	cpc	r27, r18
     6f8:	e1 f7       	brne	.-8      	; 0x6f2 <.do_clear_bss_loop>
     6fa:	0e 94 23 0e 	call	0x1c46	; 0x1c46 <main>
     6fe:	0c 94 fd 16 	jmp	0x2dfa	; 0x2dfa <_exit>

00000702 <__bad_interrupt>:
     702:	0c 94 00 00 	jmp	0	; 0x0 <__vectors>

00000706 <gfx_drawChar>:
}
void gfx_setTextColor(uint16_t color){
	textColor = color;
}
void gfx_setBgColor(uint16_t color){
	bgcolor = color;
     706:	2f 92       	push	r2
     708:	3f 92       	push	r3
     70a:	4f 92       	push	r4
     70c:	5f 92       	push	r5
     70e:	6f 92       	push	r6
     710:	7f 92       	push	r7
     712:	8f 92       	push	r8
     714:	9f 92       	push	r9
     716:	af 92       	push	r10
     718:	bf 92       	push	r11
     71a:	cf 92       	push	r12
     71c:	df 92       	push	r13
     71e:	ef 92       	push	r14
     720:	ff 92       	push	r15
     722:	0f 93       	push	r16
     724:	1f 93       	push	r17
     726:	cf 93       	push	r28
     728:	df 93       	push	r29
     72a:	cd b7       	in	r28, 0x3d	; 61
     72c:	de b7       	in	r29, 0x3e	; 62
     72e:	29 97       	sbiw	r28, 0x09	; 9
     730:	cd bf       	out	0x3d, r28	; 61
     732:	de bf       	out	0x3e, r29	; 62
     734:	e0 91 3d 20 	lds	r30, 0x203D
     738:	f0 91 3e 20 	lds	r31, 0x203E
     73c:	8e 17       	cp	r24, r30
     73e:	9f 07       	cpc	r25, r31
     740:	08 f0       	brcs	.+2      	; 0x744 <gfx_drawChar+0x3e>
     742:	7a c0       	rjmp	.+244    	; 0x838 <gfx_drawChar+0x132>
     744:	e0 91 3b 20 	lds	r30, 0x203B
     748:	f0 91 3c 20 	lds	r31, 0x203C
     74c:	6e 17       	cp	r22, r30
     74e:	7f 07       	cpc	r23, r31
     750:	08 f0       	brcs	.+2      	; 0x754 <gfx_drawChar+0x4e>
     752:	72 c0       	rjmp	.+228    	; 0x838 <gfx_drawChar+0x132>
     754:	ae 2c       	mov	r10, r14
     756:	b1 2c       	mov	r11, r1
     758:	fc 01       	movw	r30, r24
     75a:	56 e0       	ldi	r21, 0x06	; 6
     75c:	e5 9e       	mul	r14, r21
     75e:	e0 0d       	add	r30, r0
     760:	f1 1d       	adc	r31, r1
     762:	11 24       	eor	r1, r1
     764:	1e 16       	cp	r1, r30
     766:	1f 06       	cpc	r1, r31
     768:	0c f0       	brlt	.+2      	; 0x76c <gfx_drawChar+0x66>
     76a:	66 c0       	rjmp	.+204    	; 0x838 <gfx_drawChar+0x132>
     76c:	f5 01       	movw	r30, r10
     76e:	ee 0f       	add	r30, r30
     770:	ff 1f       	adc	r31, r31
     772:	ee 0f       	add	r30, r30
     774:	ff 1f       	adc	r31, r31
     776:	ee 0f       	add	r30, r30
     778:	ff 1f       	adc	r31, r31
     77a:	e6 0f       	add	r30, r22
     77c:	f7 1f       	adc	r31, r23
     77e:	1e 16       	cp	r1, r30
     780:	1f 06       	cpc	r1, r31
     782:	0c f0       	brlt	.+2      	; 0x786 <gfx_drawChar+0x80>
     784:	59 c0       	rjmp	.+178    	; 0x838 <gfx_drawChar+0x132>
     786:	18 01       	movw	r2, r16
     788:	39 01       	movw	r6, r18
     78a:	6c 83       	std	Y+4, r22	; 0x04
     78c:	7d 83       	std	Y+5, r23	; 0x05
     78e:	65 e0       	ldi	r22, 0x05	; 5
     790:	46 9f       	mul	r20, r22
     792:	90 01       	movw	r18, r0
     794:	11 24       	eor	r1, r1
     796:	4c 01       	movw	r8, r24
     798:	89 83       	std	Y+1, r24	; 0x01
     79a:	9a 83       	std	Y+2, r25	; 0x02
     79c:	e1 2c       	mov	r14, r1
     79e:	8c 81       	ldd	r24, Y+4	; 0x04
     7a0:	9d 81       	ldd	r25, Y+5	; 0x05
     7a2:	08 96       	adiw	r24, 0x08	; 8
     7a4:	2c 01       	movw	r4, r24
     7a6:	d9 01       	movw	r26, r18
     7a8:	a8 19       	sub	r26, r8
     7aa:	b9 09       	sbc	r27, r9
     7ac:	ae 83       	std	Y+6, r26	; 0x06
     7ae:	bf 83       	std	Y+7, r27	; 0x07
     7b0:	eb 82       	std	Y+3, r14	; 0x03
     7b2:	1a 2d       	mov	r17, r10
     7b4:	bb 81       	ldd	r27, Y+3	; 0x03
     7b6:	b5 30       	cpi	r27, 0x05	; 5
     7b8:	09 f4       	brne	.+2      	; 0x7bc <gfx_drawChar+0xb6>
     7ba:	62 c0       	rjmp	.+196    	; 0x880 <gfx_drawChar+0x17a>
     7bc:	ee 81       	ldd	r30, Y+6	; 0x06
     7be:	ff 81       	ldd	r31, Y+7	; 0x07
     7c0:	89 81       	ldd	r24, Y+1	; 0x01
     7c2:	9a 81       	ldd	r25, Y+2	; 0x02
     7c4:	e8 0f       	add	r30, r24
     7c6:	f9 1f       	adc	r31, r25
     7c8:	e6 53       	subi	r30, 0x36	; 54
     7ca:	ff 4f       	sbci	r31, 0xFF	; 255
     7cc:	04 91       	lpm	r16, Z
     7ce:	cc 80       	ldd	r12, Y+4	; 0x04
     7d0:	dd 80       	ldd	r13, Y+5	; 0x05
     7d2:	76 01       	movw	r14, r12
     7d4:	09 87       	std	Y+9, r16	; 0x09
     7d6:	18 87       	std	Y+8, r17	; 0x08
     7d8:	16 c0       	rjmp	.+44     	; 0x806 <gfx_drawChar+0x100>
     7da:	a8 85       	ldd	r26, Y+8	; 0x08
     7dc:	a1 30       	cpi	r26, 0x01	; 1
     7de:	09 f4       	brne	.+2      	; 0x7e2 <gfx_drawChar+0xdc>
     7e0:	41 c0       	rjmp	.+130    	; 0x864 <gfx_drawChar+0x15e>
     7e2:	83 01       	movw	r16, r6
     7e4:	95 01       	movw	r18, r10
     7e6:	a5 01       	movw	r20, r10
     7e8:	b6 01       	movw	r22, r12
     7ea:	c4 01       	movw	r24, r8
     7ec:	0e 94 4b 0d 	call	0x1a96	; 0x1a96 <fillrect>
     7f0:	e9 85       	ldd	r30, Y+9	; 0x09
     7f2:	e6 95       	lsr	r30
     7f4:	e9 87       	std	Y+9, r30	; 0x09
     7f6:	ff ef       	ldi	r31, 0xFF	; 255
     7f8:	ef 1a       	sub	r14, r31
     7fa:	ff 0a       	sbc	r15, r31
     7fc:	ca 0c       	add	r12, r10
     7fe:	db 1c       	adc	r13, r11
     800:	e4 14       	cp	r14, r4
     802:	f5 04       	cpc	r15, r5
     804:	59 f0       	breq	.+22     	; 0x81c <gfx_drawChar+0x116>
     806:	99 85       	ldd	r25, Y+9	; 0x09
     808:	90 fd       	sbrc	r25, 0
     80a:	e7 cf       	rjmp	.-50     	; 0x7da <gfx_drawChar+0xd4>
     80c:	62 14       	cp	r6, r2
     80e:	73 04       	cpc	r7, r3
     810:	79 f3       	breq	.-34     	; 0x7f0 <gfx_drawChar+0xea>
     812:	b8 85       	ldd	r27, Y+8	; 0x08
     814:	b1 30       	cpi	r27, 0x01	; 1
     816:	69 f1       	breq	.+90     	; 0x872 <gfx_drawChar+0x16c>
     818:	81 01       	movw	r16, r2
     81a:	e4 cf       	rjmp	.-56     	; 0x7e4 <gfx_drawChar+0xde>
     81c:	18 85       	ldd	r17, Y+8	; 0x08
     81e:	5b 81       	ldd	r21, Y+3	; 0x03
     820:	5f 5f       	subi	r21, 0xFF	; 255
     822:	5b 83       	std	Y+3, r21	; 0x03
     824:	89 81       	ldd	r24, Y+1	; 0x01
     826:	9a 81       	ldd	r25, Y+2	; 0x02
     828:	01 96       	adiw	r24, 0x01	; 1
     82a:	89 83       	std	Y+1, r24	; 0x01
     82c:	9a 83       	std	Y+2, r25	; 0x02
     82e:	8a 0c       	add	r8, r10
     830:	9b 1c       	adc	r9, r11
     832:	56 30       	cpi	r21, 0x06	; 6
     834:	09 f0       	breq	.+2      	; 0x838 <gfx_drawChar+0x132>
     836:	be cf       	rjmp	.-132    	; 0x7b4 <gfx_drawChar+0xae>
     838:	29 96       	adiw	r28, 0x09	; 9
     83a:	cd bf       	out	0x3d, r28	; 61
     83c:	de bf       	out	0x3e, r29	; 62
     83e:	df 91       	pop	r29
     840:	cf 91       	pop	r28
     842:	1f 91       	pop	r17
     844:	0f 91       	pop	r16
     846:	ff 90       	pop	r15
     848:	ef 90       	pop	r14
     84a:	df 90       	pop	r13
     84c:	cf 90       	pop	r12
     84e:	bf 90       	pop	r11
     850:	af 90       	pop	r10
     852:	9f 90       	pop	r9
     854:	8f 90       	pop	r8
     856:	7f 90       	pop	r7
     858:	6f 90       	pop	r6
     85a:	5f 90       	pop	r5
     85c:	4f 90       	pop	r4
     85e:	3f 90       	pop	r3
     860:	2f 90       	pop	r2
     862:	08 95       	ret
     864:	a3 01       	movw	r20, r6
     866:	b7 01       	movw	r22, r14
     868:	89 81       	ldd	r24, Y+1	; 0x01
     86a:	9a 81       	ldd	r25, Y+2	; 0x02
     86c:	0e 94 2a 0d 	call	0x1a54	; 0x1a54 <drawPixel>
     870:	bf cf       	rjmp	.-130    	; 0x7f0 <gfx_drawChar+0xea>
     872:	a1 01       	movw	r20, r2
     874:	b7 01       	movw	r22, r14
     876:	89 81       	ldd	r24, Y+1	; 0x01
     878:	9a 81       	ldd	r25, Y+2	; 0x02
     87a:	0e 94 2a 0d 	call	0x1a54	; 0x1a54 <drawPixel>
     87e:	b8 cf       	rjmp	.-144    	; 0x7f0 <gfx_drawChar+0xea>
     880:	00 e0       	ldi	r16, 0x00	; 0
     882:	a5 cf       	rjmp	.-182    	; 0x7ce <gfx_drawChar+0xc8>

00000884 <gfx_setCursor>:
     884:	80 93 37 20 	sts	0x2037, r24
     888:	90 93 38 20 	sts	0x2038, r25
     88c:	60 93 29 20 	sts	0x2029, r22
     890:	70 93 2a 20 	sts	0x202A, r23
     894:	08 95       	ret

00000896 <gfx_setTextColor>:
     896:	80 93 2b 20 	sts	0x202B, r24
     89a:	90 93 2c 20 	sts	0x202C, r25
     89e:	08 95       	ret

000008a0 <gfx_setTextSize>:
}
void gfx_setTextSize(uint8_t size){
	textSize = size;
     8a0:	80 93 26 20 	sts	0x2026, r24
     8a4:	08 95       	ret

000008a6 <gfx_write>:
		{
			break;
		}
	}
}
void gfx_write(char c){
     8a6:	ef 92       	push	r14
     8a8:	0f 93       	push	r16
     8aa:	1f 93       	push	r17
	if (c == '\n') {
     8ac:	8a 30       	cpi	r24, 0x0A	; 10
     8ae:	51 f1       	breq	.+84     	; 0x904 <gfx_write+0x5e>
		cursor_y += textSize*8;
		cursor_x  = 0;
		} else if (c == '\r') {
     8b0:	8d 30       	cpi	r24, 0x0D	; 13
     8b2:	21 f1       	breq	.+72     	; 0x8fc <gfx_write+0x56>
     8b4:	48 2f       	mov	r20, r24
		// skip em
	}
	else
	{
		gfx_drawChar(cursor_x, cursor_y, c, textColor, bgcolor, textSize);
     8b6:	00 91 2d 20 	lds	r16, 0x202D
     8ba:	10 91 2e 20 	lds	r17, 0x202E
     8be:	20 91 2b 20 	lds	r18, 0x202B
     8c2:	30 91 2c 20 	lds	r19, 0x202C
     8c6:	60 91 29 20 	lds	r22, 0x2029
     8ca:	70 91 2a 20 	lds	r23, 0x202A
     8ce:	e0 90 26 20 	lds	r14, 0x2026
     8d2:	80 91 37 20 	lds	r24, 0x2037
     8d6:	90 91 38 20 	lds	r25, 0x2038
     8da:	0e 94 83 03 	call	0x706	; 0x706 <gfx_drawChar>
		cursor_x += textSize*6;
     8de:	20 91 26 20 	lds	r18, 0x2026
     8e2:	80 91 37 20 	lds	r24, 0x2037
     8e6:	90 91 38 20 	lds	r25, 0x2038
     8ea:	36 e0       	ldi	r19, 0x06	; 6
     8ec:	23 9f       	mul	r18, r19
     8ee:	80 0d       	add	r24, r0
     8f0:	91 1d       	adc	r25, r1
     8f2:	11 24       	eor	r1, r1
     8f4:	80 93 37 20 	sts	0x2037, r24
     8f8:	90 93 38 20 	sts	0x2038, r25
	}
}
     8fc:	1f 91       	pop	r17
     8fe:	0f 91       	pop	r16
     900:	ef 90       	pop	r14
     902:	08 95       	ret
		}
	}
}
void gfx_write(char c){
	if (c == '\n') {
		cursor_y += textSize*8;
     904:	20 91 26 20 	lds	r18, 0x2026
     908:	80 91 29 20 	lds	r24, 0x2029
     90c:	90 91 2a 20 	lds	r25, 0x202A
     910:	38 e0       	ldi	r19, 0x08	; 8
     912:	23 9f       	mul	r18, r19
     914:	80 0d       	add	r24, r0
     916:	91 1d       	adc	r25, r1
     918:	11 24       	eor	r1, r1
     91a:	80 93 29 20 	sts	0x2029, r24
     91e:	90 93 2a 20 	sts	0x202A, r25
		cursor_x  = 0;
     922:	10 92 37 20 	sts	0x2037, r1
     926:	10 92 38 20 	sts	0x2038, r1
	else
	{
		gfx_drawChar(cursor_x, cursor_y, c, textColor, bgcolor, textSize);
		cursor_x += textSize*6;
	}
}
     92a:	1f 91       	pop	r17
     92c:	0f 91       	pop	r16
     92e:	ef 90       	pop	r14
     930:	08 95       	ret

00000932 <gfx_print>:
	bgcolor = color;
}
void gfx_setTextSize(uint8_t size){
	textSize = size;
}
void gfx_print(char *string){
     932:	0f 93       	push	r16
     934:	1f 93       	push	r17
     936:	cf 93       	push	r28
     938:	df 93       	push	r29
     93a:	fc 01       	movw	r30, r24
		char *i;
		for (i=string; *i; i++) {
     93c:	80 81       	ld	r24, Z
     93e:	88 23       	and	r24, r24
     940:	61 f0       	breq	.+24     	; 0x95a <gfx_print+0x28>
     942:	8f 01       	movw	r16, r30
     944:	ef 01       	movw	r28, r30
     946:	21 96       	adiw	r28, 0x01	; 1
     948:	03 c0       	rjmp	.+6      	; 0x950 <gfx_print+0x1e>
     94a:	89 91       	ld	r24, Y+
     94c:	88 23       	and	r24, r24
     94e:	29 f0       	breq	.+10     	; 0x95a <gfx_print+0x28>
			//write the char'
			gfx_write(*i);
     950:	0e 94 53 04 	call	0x8a6	; 0x8a6 <gfx_write>
			if(string =='\0')
     954:	01 15       	cp	r16, r1
     956:	11 05       	cpc	r17, r1
     958:	c1 f7       	brne	.-16     	; 0x94a <gfx_print+0x18>
			{
				break;
			}
		} 
}
     95a:	df 91       	pop	r29
     95c:	cf 91       	pop	r28
     95e:	1f 91       	pop	r17
     960:	0f 91       	pop	r16
     962:	08 95       	ret

00000964 <setup32>:
			{
				uint16_t colorx = rand();
				pushColor(colorx);
			}
		}
}
     964:	88 ed       	ldi	r24, 0xD8	; 216
     966:	84 bf       	out	0x34, r24	; 52
     968:	80 91 50 00 	lds	r24, 0x0050
     96c:	80 62       	ori	r24, 0x20	; 32
     96e:	80 93 50 00 	sts	0x0050, r24
     972:	80 91 51 00 	lds	r24, 0x0051
     976:	85 ff       	sbrs	r24, 5
     978:	fc cf       	rjmp	.-8      	; 0x972 <setup32+0xe>
     97a:	88 ed       	ldi	r24, 0xD8	; 216
     97c:	84 bf       	out	0x34, r24	; 52
     97e:	10 92 40 00 	sts	0x0040, r1
     982:	80 e4       	ldi	r24, 0x40	; 64
     984:	80 93 55 00 	sts	0x0055, r24
     988:	84 e1       	ldi	r24, 0x14	; 20
     98a:	80 93 55 00 	sts	0x0055, r24
     98e:	80 e1       	ldi	r24, 0x10	; 16
     990:	80 93 50 00 	sts	0x0050, r24
     994:	80 91 51 00 	lds	r24, 0x0051
     998:	84 ff       	sbrs	r24, 4
     99a:	fc cf       	rjmp	.-8      	; 0x994 <setup32+0x30>
     99c:	88 ed       	ldi	r24, 0xD8	; 216
     99e:	84 bf       	out	0x34, r24	; 52
     9a0:	84 e0       	ldi	r24, 0x04	; 4
     9a2:	80 93 40 00 	sts	0x0040, r24
     9a6:	08 95       	ret

000009a8 <spi_init_hardware>:
     9a8:	e0 e4       	ldi	r30, 0x40	; 64
     9aa:	f6 e0       	ldi	r31, 0x06	; 6
     9ac:	80 81       	ld	r24, Z
     9ae:	8c 60       	ori	r24, 0x0C	; 12
     9b0:	80 83       	st	Z, r24
     9b2:	e4 e4       	ldi	r30, 0x44	; 68
     9b4:	f6 e0       	ldi	r31, 0x06	; 6
     9b6:	80 81       	ld	r24, Z
     9b8:	84 60       	ori	r24, 0x04	; 4
     9ba:	80 83       	st	Z, r24
     9bc:	0c 94 b2 04 	jmp	0x964	; 0x964 <setup32>

000009c0 <setAddress>:
     9c0:	e0 91 44 06 	lds	r30, 0x0644
     9c4:	e7 7e       	andi	r30, 0xE7	; 231
     9c6:	e0 93 44 06 	sts	0x0644, r30
     9ca:	ea e2       	ldi	r30, 0x2A	; 42
     9cc:	e0 93 e3 08 	sts	0x08E3, r30
     9d0:	e0 91 e2 08 	lds	r30, 0x08E2
     9d4:	e7 ff       	sbrs	r30, 7
     9d6:	fc cf       	rjmp	.-8      	; 0x9d0 <setAddress+0x10>
     9d8:	e0 91 44 06 	lds	r30, 0x0644
     9dc:	e0 61       	ori	r30, 0x10	; 16
     9de:	e0 93 44 06 	sts	0x0644, r30
     9e2:	e0 91 44 06 	lds	r30, 0x0644
     9e6:	e8 60       	ori	r30, 0x08	; 8
     9e8:	e0 93 44 06 	sts	0x0644, r30
     9ec:	e0 91 44 06 	lds	r30, 0x0644
     9f0:	ef 7e       	andi	r30, 0xEF	; 239
     9f2:	e0 93 44 06 	sts	0x0644, r30
     9f6:	90 93 e3 08 	sts	0x08E3, r25
     9fa:	90 91 e2 08 	lds	r25, 0x08E2
     9fe:	97 ff       	sbrs	r25, 7
     a00:	fc cf       	rjmp	.-8      	; 0x9fa <setAddress+0x3a>
     a02:	90 91 44 06 	lds	r25, 0x0644
     a06:	90 61       	ori	r25, 0x10	; 16
     a08:	90 93 44 06 	sts	0x0644, r25
     a0c:	90 91 44 06 	lds	r25, 0x0644
     a10:	98 60       	ori	r25, 0x08	; 8
     a12:	90 93 44 06 	sts	0x0644, r25
     a16:	90 91 44 06 	lds	r25, 0x0644
     a1a:	9f 7e       	andi	r25, 0xEF	; 239
     a1c:	90 93 44 06 	sts	0x0644, r25
     a20:	80 93 e3 08 	sts	0x08E3, r24
     a24:	80 91 e2 08 	lds	r24, 0x08E2
     a28:	87 ff       	sbrs	r24, 7
     a2a:	fc cf       	rjmp	.-8      	; 0xa24 <setAddress+0x64>
     a2c:	80 91 44 06 	lds	r24, 0x0644
     a30:	80 61       	ori	r24, 0x10	; 16
     a32:	80 93 44 06 	sts	0x0644, r24
     a36:	80 91 44 06 	lds	r24, 0x0644
     a3a:	88 60       	ori	r24, 0x08	; 8
     a3c:	80 93 44 06 	sts	0x0644, r24
     a40:	80 91 44 06 	lds	r24, 0x0644
     a44:	8f 7e       	andi	r24, 0xEF	; 239
     a46:	80 93 44 06 	sts	0x0644, r24
     a4a:	50 93 e3 08 	sts	0x08E3, r21
     a4e:	80 91 e2 08 	lds	r24, 0x08E2
     a52:	87 ff       	sbrs	r24, 7
     a54:	fc cf       	rjmp	.-8      	; 0xa4e <setAddress+0x8e>
     a56:	80 91 44 06 	lds	r24, 0x0644
     a5a:	80 61       	ori	r24, 0x10	; 16
     a5c:	80 93 44 06 	sts	0x0644, r24
     a60:	80 91 44 06 	lds	r24, 0x0644
     a64:	88 60       	ori	r24, 0x08	; 8
     a66:	80 93 44 06 	sts	0x0644, r24
     a6a:	80 91 44 06 	lds	r24, 0x0644
     a6e:	8f 7e       	andi	r24, 0xEF	; 239
     a70:	80 93 44 06 	sts	0x0644, r24
     a74:	40 93 e3 08 	sts	0x08E3, r20
     a78:	80 91 e2 08 	lds	r24, 0x08E2
     a7c:	87 ff       	sbrs	r24, 7
     a7e:	fc cf       	rjmp	.-8      	; 0xa78 <setAddress+0xb8>
     a80:	80 91 44 06 	lds	r24, 0x0644
     a84:	80 61       	ori	r24, 0x10	; 16
     a86:	80 93 44 06 	sts	0x0644, r24
     a8a:	80 91 44 06 	lds	r24, 0x0644
     a8e:	87 7e       	andi	r24, 0xE7	; 231
     a90:	80 93 44 06 	sts	0x0644, r24
     a94:	8b e2       	ldi	r24, 0x2B	; 43
     a96:	80 93 e3 08 	sts	0x08E3, r24
     a9a:	80 91 e2 08 	lds	r24, 0x08E2
     a9e:	87 ff       	sbrs	r24, 7
     aa0:	fc cf       	rjmp	.-8      	; 0xa9a <setAddress+0xda>
     aa2:	80 91 44 06 	lds	r24, 0x0644
     aa6:	80 61       	ori	r24, 0x10	; 16
     aa8:	80 93 44 06 	sts	0x0644, r24
     aac:	80 91 44 06 	lds	r24, 0x0644
     ab0:	88 60       	ori	r24, 0x08	; 8
     ab2:	80 93 44 06 	sts	0x0644, r24
     ab6:	80 91 44 06 	lds	r24, 0x0644
     aba:	8f 7e       	andi	r24, 0xEF	; 239
     abc:	80 93 44 06 	sts	0x0644, r24
     ac0:	70 93 e3 08 	sts	0x08E3, r23
     ac4:	80 91 e2 08 	lds	r24, 0x08E2
     ac8:	87 ff       	sbrs	r24, 7
     aca:	fc cf       	rjmp	.-8      	; 0xac4 <setAddress+0x104>
     acc:	80 91 44 06 	lds	r24, 0x0644
     ad0:	80 61       	ori	r24, 0x10	; 16
     ad2:	80 93 44 06 	sts	0x0644, r24
     ad6:	80 91 44 06 	lds	r24, 0x0644
     ada:	88 60       	ori	r24, 0x08	; 8
     adc:	80 93 44 06 	sts	0x0644, r24
     ae0:	80 91 44 06 	lds	r24, 0x0644
     ae4:	8f 7e       	andi	r24, 0xEF	; 239
     ae6:	80 93 44 06 	sts	0x0644, r24
     aea:	60 93 e3 08 	sts	0x08E3, r22
     aee:	80 91 e2 08 	lds	r24, 0x08E2
     af2:	87 ff       	sbrs	r24, 7
     af4:	fc cf       	rjmp	.-8      	; 0xaee <setAddress+0x12e>
     af6:	80 91 44 06 	lds	r24, 0x0644
     afa:	80 61       	ori	r24, 0x10	; 16
     afc:	80 93 44 06 	sts	0x0644, r24
     b00:	80 91 44 06 	lds	r24, 0x0644
     b04:	88 60       	ori	r24, 0x08	; 8
     b06:	80 93 44 06 	sts	0x0644, r24
     b0a:	80 91 44 06 	lds	r24, 0x0644
     b0e:	8f 7e       	andi	r24, 0xEF	; 239
     b10:	80 93 44 06 	sts	0x0644, r24
     b14:	30 93 e3 08 	sts	0x08E3, r19
     b18:	80 91 e2 08 	lds	r24, 0x08E2
     b1c:	87 ff       	sbrs	r24, 7
     b1e:	fc cf       	rjmp	.-8      	; 0xb18 <setAddress+0x158>
     b20:	80 91 44 06 	lds	r24, 0x0644
     b24:	80 61       	ori	r24, 0x10	; 16
     b26:	80 93 44 06 	sts	0x0644, r24
     b2a:	80 91 44 06 	lds	r24, 0x0644
     b2e:	88 60       	ori	r24, 0x08	; 8
     b30:	80 93 44 06 	sts	0x0644, r24
     b34:	80 91 44 06 	lds	r24, 0x0644
     b38:	8f 7e       	andi	r24, 0xEF	; 239
     b3a:	80 93 44 06 	sts	0x0644, r24
     b3e:	20 93 e3 08 	sts	0x08E3, r18
     b42:	80 91 e2 08 	lds	r24, 0x08E2
     b46:	87 ff       	sbrs	r24, 7
     b48:	fc cf       	rjmp	.-8      	; 0xb42 <setAddress+0x182>
     b4a:	80 91 44 06 	lds	r24, 0x0644
     b4e:	80 61       	ori	r24, 0x10	; 16
     b50:	80 93 44 06 	sts	0x0644, r24
     b54:	80 91 44 06 	lds	r24, 0x0644
     b58:	87 7e       	andi	r24, 0xE7	; 231
     b5a:	80 93 44 06 	sts	0x0644, r24
     b5e:	8c e2       	ldi	r24, 0x2C	; 44
     b60:	80 93 e3 08 	sts	0x08E3, r24
     b64:	80 91 e2 08 	lds	r24, 0x08E2
     b68:	87 ff       	sbrs	r24, 7
     b6a:	fc cf       	rjmp	.-8      	; 0xb64 <setAddress+0x1a4>
     b6c:	80 91 44 06 	lds	r24, 0x0644
     b70:	80 61       	ori	r24, 0x10	; 16
     b72:	80 93 44 06 	sts	0x0644, r24
     b76:	08 95       	ret

00000b78 <begin>:
     b78:	80 ef       	ldi	r24, 0xF0	; 240
     b7a:	90 e0       	ldi	r25, 0x00	; 0
     b7c:	80 93 3d 20 	sts	0x203D, r24
     b80:	90 93 3e 20 	sts	0x203E, r25
     b84:	80 e4       	ldi	r24, 0x40	; 64
     b86:	91 e0       	ldi	r25, 0x01	; 1
     b88:	80 93 3b 20 	sts	0x203B, r24
     b8c:	90 93 3c 20 	sts	0x203C, r25
     b90:	0e 94 d4 04 	call	0x9a8	; 0x9a8 <spi_init_hardware>
     b94:	80 91 40 06 	lds	r24, 0x0640
     b98:	80 6b       	ori	r24, 0xB0	; 176
     b9a:	80 93 40 06 	sts	0x0640, r24
     b9e:	80 91 e0 08 	lds	r24, 0x08E0
     ba2:	80 65       	ori	r24, 0x50	; 80
     ba4:	80 93 e0 08 	sts	0x08E0, r24
     ba8:	80 91 e0 08 	lds	r24, 0x08E0
     bac:	80 68       	ori	r24, 0x80	; 128
     bae:	80 93 e0 08 	sts	0x08E0, r24
     bb2:	80 91 44 06 	lds	r24, 0x0644
     bb6:	80 61       	ori	r24, 0x10	; 16
     bb8:	80 93 44 06 	sts	0x0644, r24
     bbc:	80 91 44 06 	lds	r24, 0x0644
     bc0:	84 60       	ori	r24, 0x04	; 4
     bc2:	80 93 44 06 	sts	0x0644, r24
     bc6:	22 e4       	ldi	r18, 0x42	; 66
     bc8:	2a 95       	dec	r18
     bca:	f1 f7       	brne	.-4      	; 0xbc8 <begin+0x50>
     bcc:	00 c0       	rjmp	.+0      	; 0xbce <begin+0x56>
     bce:	80 91 44 06 	lds	r24, 0x0644
     bd2:	8b 7f       	andi	r24, 0xFB	; 251
     bd4:	80 93 44 06 	sts	0x0644, r24
     bd8:	82 e4       	ldi	r24, 0x42	; 66
     bda:	8a 95       	dec	r24
     bdc:	f1 f7       	brne	.-4      	; 0xbda <begin+0x62>
     bde:	00 c0       	rjmp	.+0      	; 0xbe0 <begin+0x68>
     be0:	80 91 44 06 	lds	r24, 0x0644
     be4:	84 60       	ori	r24, 0x04	; 4
     be6:	80 93 44 06 	sts	0x0644, r24
     bea:	92 e4       	ldi	r25, 0x42	; 66
     bec:	9a 95       	dec	r25
     bee:	f1 f7       	brne	.-4      	; 0xbec <begin+0x74>
     bf0:	00 c0       	rjmp	.+0      	; 0xbf2 <begin+0x7a>
     bf2:	80 91 44 06 	lds	r24, 0x0644
     bf6:	87 7e       	andi	r24, 0xE7	; 231
     bf8:	80 93 44 06 	sts	0x0644, r24
     bfc:	81 e0       	ldi	r24, 0x01	; 1
     bfe:	80 93 e3 08 	sts	0x08E3, r24
     c02:	80 91 e2 08 	lds	r24, 0x08E2
     c06:	87 ff       	sbrs	r24, 7
     c08:	fc cf       	rjmp	.-8      	; 0xc02 <begin+0x8a>
     c0a:	80 91 44 06 	lds	r24, 0x0644
     c0e:	80 61       	ori	r24, 0x10	; 16
     c10:	80 93 44 06 	sts	0x0644, r24
     c14:	2f e7       	ldi	r18, 0x7F	; 127
     c16:	89 ea       	ldi	r24, 0xA9	; 169
     c18:	93 e0       	ldi	r25, 0x03	; 3
     c1a:	21 50       	subi	r18, 0x01	; 1
     c1c:	80 40       	sbci	r24, 0x00	; 0
     c1e:	90 40       	sbci	r25, 0x00	; 0
     c20:	e1 f7       	brne	.-8      	; 0xc1a <begin+0xa2>
     c22:	00 c0       	rjmp	.+0      	; 0xc24 <begin+0xac>
     c24:	00 00       	nop
     c26:	80 91 44 06 	lds	r24, 0x0644
     c2a:	87 7e       	andi	r24, 0xE7	; 231
     c2c:	80 93 44 06 	sts	0x0644, r24
     c30:	8b ec       	ldi	r24, 0xCB	; 203
     c32:	80 93 e3 08 	sts	0x08E3, r24
     c36:	80 91 e2 08 	lds	r24, 0x08E2
     c3a:	87 ff       	sbrs	r24, 7
     c3c:	fc cf       	rjmp	.-8      	; 0xc36 <begin+0xbe>
     c3e:	80 91 44 06 	lds	r24, 0x0644
     c42:	80 61       	ori	r24, 0x10	; 16
     c44:	80 93 44 06 	sts	0x0644, r24
     c48:	80 91 44 06 	lds	r24, 0x0644
     c4c:	88 60       	ori	r24, 0x08	; 8
     c4e:	80 93 44 06 	sts	0x0644, r24
     c52:	80 91 44 06 	lds	r24, 0x0644
     c56:	8f 7e       	andi	r24, 0xEF	; 239
     c58:	80 93 44 06 	sts	0x0644, r24
     c5c:	89 e3       	ldi	r24, 0x39	; 57
     c5e:	80 93 e3 08 	sts	0x08E3, r24
     c62:	80 91 e2 08 	lds	r24, 0x08E2
     c66:	87 ff       	sbrs	r24, 7
     c68:	fc cf       	rjmp	.-8      	; 0xc62 <begin+0xea>
     c6a:	80 91 44 06 	lds	r24, 0x0644
     c6e:	80 61       	ori	r24, 0x10	; 16
     c70:	80 93 44 06 	sts	0x0644, r24
     c74:	80 91 44 06 	lds	r24, 0x0644
     c78:	88 60       	ori	r24, 0x08	; 8
     c7a:	80 93 44 06 	sts	0x0644, r24
     c7e:	80 91 44 06 	lds	r24, 0x0644
     c82:	8f 7e       	andi	r24, 0xEF	; 239
     c84:	80 93 44 06 	sts	0x0644, r24
     c88:	8c e2       	ldi	r24, 0x2C	; 44
     c8a:	80 93 e3 08 	sts	0x08E3, r24
     c8e:	80 91 e2 08 	lds	r24, 0x08E2
     c92:	87 ff       	sbrs	r24, 7
     c94:	fc cf       	rjmp	.-8      	; 0xc8e <begin+0x116>
     c96:	80 91 44 06 	lds	r24, 0x0644
     c9a:	80 61       	ori	r24, 0x10	; 16
     c9c:	80 93 44 06 	sts	0x0644, r24
     ca0:	80 91 44 06 	lds	r24, 0x0644
     ca4:	88 60       	ori	r24, 0x08	; 8
     ca6:	80 93 44 06 	sts	0x0644, r24
     caa:	80 91 44 06 	lds	r24, 0x0644
     cae:	8f 7e       	andi	r24, 0xEF	; 239
     cb0:	80 93 44 06 	sts	0x0644, r24
     cb4:	10 92 e3 08 	sts	0x08E3, r1
     cb8:	80 91 e2 08 	lds	r24, 0x08E2
     cbc:	87 ff       	sbrs	r24, 7
     cbe:	fc cf       	rjmp	.-8      	; 0xcb8 <begin+0x140>
     cc0:	80 91 44 06 	lds	r24, 0x0644
     cc4:	80 61       	ori	r24, 0x10	; 16
     cc6:	80 93 44 06 	sts	0x0644, r24
     cca:	80 91 44 06 	lds	r24, 0x0644
     cce:	88 60       	ori	r24, 0x08	; 8
     cd0:	80 93 44 06 	sts	0x0644, r24
     cd4:	80 91 44 06 	lds	r24, 0x0644
     cd8:	8f 7e       	andi	r24, 0xEF	; 239
     cda:	80 93 44 06 	sts	0x0644, r24
     cde:	84 e3       	ldi	r24, 0x34	; 52
     ce0:	80 93 e3 08 	sts	0x08E3, r24
     ce4:	80 91 e2 08 	lds	r24, 0x08E2
     ce8:	87 ff       	sbrs	r24, 7
     cea:	fc cf       	rjmp	.-8      	; 0xce4 <begin+0x16c>
     cec:	80 91 44 06 	lds	r24, 0x0644
     cf0:	80 61       	ori	r24, 0x10	; 16
     cf2:	80 93 44 06 	sts	0x0644, r24
     cf6:	80 91 44 06 	lds	r24, 0x0644
     cfa:	88 60       	ori	r24, 0x08	; 8
     cfc:	80 93 44 06 	sts	0x0644, r24
     d00:	80 91 44 06 	lds	r24, 0x0644
     d04:	8f 7e       	andi	r24, 0xEF	; 239
     d06:	80 93 44 06 	sts	0x0644, r24
     d0a:	82 e0       	ldi	r24, 0x02	; 2
     d0c:	80 93 e3 08 	sts	0x08E3, r24
     d10:	80 91 e2 08 	lds	r24, 0x08E2
     d14:	87 ff       	sbrs	r24, 7
     d16:	fc cf       	rjmp	.-8      	; 0xd10 <begin+0x198>
     d18:	80 91 44 06 	lds	r24, 0x0644
     d1c:	80 61       	ori	r24, 0x10	; 16
     d1e:	80 93 44 06 	sts	0x0644, r24
     d22:	80 91 44 06 	lds	r24, 0x0644
     d26:	87 7e       	andi	r24, 0xE7	; 231
     d28:	80 93 44 06 	sts	0x0644, r24
     d2c:	8f ec       	ldi	r24, 0xCF	; 207
     d2e:	80 93 e3 08 	sts	0x08E3, r24
     d32:	80 91 e2 08 	lds	r24, 0x08E2
     d36:	87 ff       	sbrs	r24, 7
     d38:	fc cf       	rjmp	.-8      	; 0xd32 <begin+0x1ba>
     d3a:	80 91 44 06 	lds	r24, 0x0644
     d3e:	80 61       	ori	r24, 0x10	; 16
     d40:	80 93 44 06 	sts	0x0644, r24
     d44:	80 91 44 06 	lds	r24, 0x0644
     d48:	88 60       	ori	r24, 0x08	; 8
     d4a:	80 93 44 06 	sts	0x0644, r24
     d4e:	80 91 44 06 	lds	r24, 0x0644
     d52:	8f 7e       	andi	r24, 0xEF	; 239
     d54:	80 93 44 06 	sts	0x0644, r24
     d58:	10 92 e3 08 	sts	0x08E3, r1
     d5c:	80 91 e2 08 	lds	r24, 0x08E2
     d60:	87 ff       	sbrs	r24, 7
     d62:	fc cf       	rjmp	.-8      	; 0xd5c <begin+0x1e4>
     d64:	80 91 44 06 	lds	r24, 0x0644
     d68:	80 61       	ori	r24, 0x10	; 16
     d6a:	80 93 44 06 	sts	0x0644, r24
     d6e:	80 91 44 06 	lds	r24, 0x0644
     d72:	88 60       	ori	r24, 0x08	; 8
     d74:	80 93 44 06 	sts	0x0644, r24
     d78:	80 91 44 06 	lds	r24, 0x0644
     d7c:	8f 7e       	andi	r24, 0xEF	; 239
     d7e:	80 93 44 06 	sts	0x0644, r24
     d82:	81 ec       	ldi	r24, 0xC1	; 193
     d84:	80 93 e3 08 	sts	0x08E3, r24
     d88:	80 91 e2 08 	lds	r24, 0x08E2
     d8c:	87 ff       	sbrs	r24, 7
     d8e:	fc cf       	rjmp	.-8      	; 0xd88 <begin+0x210>
     d90:	80 91 44 06 	lds	r24, 0x0644
     d94:	80 61       	ori	r24, 0x10	; 16
     d96:	80 93 44 06 	sts	0x0644, r24
     d9a:	80 91 44 06 	lds	r24, 0x0644
     d9e:	88 60       	ori	r24, 0x08	; 8
     da0:	80 93 44 06 	sts	0x0644, r24
     da4:	80 91 44 06 	lds	r24, 0x0644
     da8:	8f 7e       	andi	r24, 0xEF	; 239
     daa:	80 93 44 06 	sts	0x0644, r24
     dae:	80 e3       	ldi	r24, 0x30	; 48
     db0:	80 93 e3 08 	sts	0x08E3, r24
     db4:	80 91 e2 08 	lds	r24, 0x08E2
     db8:	87 ff       	sbrs	r24, 7
     dba:	fc cf       	rjmp	.-8      	; 0xdb4 <begin+0x23c>
     dbc:	80 91 44 06 	lds	r24, 0x0644
     dc0:	80 61       	ori	r24, 0x10	; 16
     dc2:	80 93 44 06 	sts	0x0644, r24
     dc6:	80 91 44 06 	lds	r24, 0x0644
     dca:	87 7e       	andi	r24, 0xE7	; 231
     dcc:	80 93 44 06 	sts	0x0644, r24
     dd0:	88 ee       	ldi	r24, 0xE8	; 232
     dd2:	80 93 e3 08 	sts	0x08E3, r24
     dd6:	80 91 e2 08 	lds	r24, 0x08E2
     dda:	87 ff       	sbrs	r24, 7
     ddc:	fc cf       	rjmp	.-8      	; 0xdd6 <begin+0x25e>
     dde:	80 91 44 06 	lds	r24, 0x0644
     de2:	80 61       	ori	r24, 0x10	; 16
     de4:	80 93 44 06 	sts	0x0644, r24
     de8:	80 91 44 06 	lds	r24, 0x0644
     dec:	88 60       	ori	r24, 0x08	; 8
     dee:	80 93 44 06 	sts	0x0644, r24
     df2:	80 91 44 06 	lds	r24, 0x0644
     df6:	8f 7e       	andi	r24, 0xEF	; 239
     df8:	80 93 44 06 	sts	0x0644, r24
     dfc:	85 e8       	ldi	r24, 0x85	; 133
     dfe:	80 93 e3 08 	sts	0x08E3, r24
     e02:	80 91 e2 08 	lds	r24, 0x08E2
     e06:	87 ff       	sbrs	r24, 7
     e08:	fc cf       	rjmp	.-8      	; 0xe02 <begin+0x28a>
     e0a:	80 91 44 06 	lds	r24, 0x0644
     e0e:	80 61       	ori	r24, 0x10	; 16
     e10:	80 93 44 06 	sts	0x0644, r24
     e14:	80 91 44 06 	lds	r24, 0x0644
     e18:	88 60       	ori	r24, 0x08	; 8
     e1a:	80 93 44 06 	sts	0x0644, r24
     e1e:	80 91 44 06 	lds	r24, 0x0644
     e22:	8f 7e       	andi	r24, 0xEF	; 239
     e24:	80 93 44 06 	sts	0x0644, r24
     e28:	10 92 e3 08 	sts	0x08E3, r1
     e2c:	80 91 e2 08 	lds	r24, 0x08E2
     e30:	87 ff       	sbrs	r24, 7
     e32:	fc cf       	rjmp	.-8      	; 0xe2c <begin+0x2b4>
     e34:	80 91 44 06 	lds	r24, 0x0644
     e38:	80 61       	ori	r24, 0x10	; 16
     e3a:	80 93 44 06 	sts	0x0644, r24
     e3e:	80 91 44 06 	lds	r24, 0x0644
     e42:	88 60       	ori	r24, 0x08	; 8
     e44:	80 93 44 06 	sts	0x0644, r24
     e48:	80 91 44 06 	lds	r24, 0x0644
     e4c:	8f 7e       	andi	r24, 0xEF	; 239
     e4e:	80 93 44 06 	sts	0x0644, r24
     e52:	88 e7       	ldi	r24, 0x78	; 120
     e54:	80 93 e3 08 	sts	0x08E3, r24
     e58:	80 91 e2 08 	lds	r24, 0x08E2
     e5c:	87 ff       	sbrs	r24, 7
     e5e:	fc cf       	rjmp	.-8      	; 0xe58 <begin+0x2e0>
     e60:	80 91 44 06 	lds	r24, 0x0644
     e64:	80 61       	ori	r24, 0x10	; 16
     e66:	80 93 44 06 	sts	0x0644, r24
     e6a:	80 91 44 06 	lds	r24, 0x0644
     e6e:	87 7e       	andi	r24, 0xE7	; 231
     e70:	80 93 44 06 	sts	0x0644, r24
     e74:	8a ee       	ldi	r24, 0xEA	; 234
     e76:	80 93 e3 08 	sts	0x08E3, r24
     e7a:	80 91 e2 08 	lds	r24, 0x08E2
     e7e:	87 ff       	sbrs	r24, 7
     e80:	fc cf       	rjmp	.-8      	; 0xe7a <begin+0x302>
     e82:	80 91 44 06 	lds	r24, 0x0644
     e86:	80 61       	ori	r24, 0x10	; 16
     e88:	80 93 44 06 	sts	0x0644, r24
     e8c:	80 91 44 06 	lds	r24, 0x0644
     e90:	88 60       	ori	r24, 0x08	; 8
     e92:	80 93 44 06 	sts	0x0644, r24
     e96:	80 91 44 06 	lds	r24, 0x0644
     e9a:	8f 7e       	andi	r24, 0xEF	; 239
     e9c:	80 93 44 06 	sts	0x0644, r24
     ea0:	10 92 e3 08 	sts	0x08E3, r1
     ea4:	80 91 e2 08 	lds	r24, 0x08E2
     ea8:	87 ff       	sbrs	r24, 7
     eaa:	fc cf       	rjmp	.-8      	; 0xea4 <begin+0x32c>
     eac:	80 91 44 06 	lds	r24, 0x0644
     eb0:	80 61       	ori	r24, 0x10	; 16
     eb2:	80 93 44 06 	sts	0x0644, r24
     eb6:	80 91 44 06 	lds	r24, 0x0644
     eba:	88 60       	ori	r24, 0x08	; 8
     ebc:	80 93 44 06 	sts	0x0644, r24
     ec0:	80 91 44 06 	lds	r24, 0x0644
     ec4:	8f 7e       	andi	r24, 0xEF	; 239
     ec6:	80 93 44 06 	sts	0x0644, r24
     eca:	10 92 e3 08 	sts	0x08E3, r1
     ece:	80 91 e2 08 	lds	r24, 0x08E2
     ed2:	87 ff       	sbrs	r24, 7
     ed4:	fc cf       	rjmp	.-8      	; 0xece <begin+0x356>
     ed6:	80 91 44 06 	lds	r24, 0x0644
     eda:	80 61       	ori	r24, 0x10	; 16
     edc:	80 93 44 06 	sts	0x0644, r24
     ee0:	80 91 44 06 	lds	r24, 0x0644
     ee4:	87 7e       	andi	r24, 0xE7	; 231
     ee6:	80 93 44 06 	sts	0x0644, r24
     eea:	8d ee       	ldi	r24, 0xED	; 237
     eec:	80 93 e3 08 	sts	0x08E3, r24
     ef0:	80 91 e2 08 	lds	r24, 0x08E2
     ef4:	87 ff       	sbrs	r24, 7
     ef6:	fc cf       	rjmp	.-8      	; 0xef0 <begin+0x378>
     ef8:	80 91 44 06 	lds	r24, 0x0644
     efc:	80 61       	ori	r24, 0x10	; 16
     efe:	80 93 44 06 	sts	0x0644, r24
     f02:	80 91 44 06 	lds	r24, 0x0644
     f06:	88 60       	ori	r24, 0x08	; 8
     f08:	80 93 44 06 	sts	0x0644, r24
     f0c:	80 91 44 06 	lds	r24, 0x0644
     f10:	8f 7e       	andi	r24, 0xEF	; 239
     f12:	80 93 44 06 	sts	0x0644, r24
     f16:	84 e6       	ldi	r24, 0x64	; 100
     f18:	80 93 e3 08 	sts	0x08E3, r24
     f1c:	80 91 e2 08 	lds	r24, 0x08E2
     f20:	87 ff       	sbrs	r24, 7
     f22:	fc cf       	rjmp	.-8      	; 0xf1c <begin+0x3a4>
     f24:	80 91 44 06 	lds	r24, 0x0644
     f28:	80 61       	ori	r24, 0x10	; 16
     f2a:	80 93 44 06 	sts	0x0644, r24
     f2e:	80 91 44 06 	lds	r24, 0x0644
     f32:	88 60       	ori	r24, 0x08	; 8
     f34:	80 93 44 06 	sts	0x0644, r24
     f38:	80 91 44 06 	lds	r24, 0x0644
     f3c:	8f 7e       	andi	r24, 0xEF	; 239
     f3e:	80 93 44 06 	sts	0x0644, r24
     f42:	83 e0       	ldi	r24, 0x03	; 3
     f44:	80 93 e3 08 	sts	0x08E3, r24
     f48:	80 91 e2 08 	lds	r24, 0x08E2
     f4c:	87 ff       	sbrs	r24, 7
     f4e:	fc cf       	rjmp	.-8      	; 0xf48 <begin+0x3d0>
     f50:	80 91 44 06 	lds	r24, 0x0644
     f54:	80 61       	ori	r24, 0x10	; 16
     f56:	80 93 44 06 	sts	0x0644, r24
     f5a:	80 91 44 06 	lds	r24, 0x0644
     f5e:	88 60       	ori	r24, 0x08	; 8
     f60:	80 93 44 06 	sts	0x0644, r24
     f64:	80 91 44 06 	lds	r24, 0x0644
     f68:	8f 7e       	andi	r24, 0xEF	; 239
     f6a:	80 93 44 06 	sts	0x0644, r24
     f6e:	82 e1       	ldi	r24, 0x12	; 18
     f70:	80 93 e3 08 	sts	0x08E3, r24
     f74:	80 91 e2 08 	lds	r24, 0x08E2
     f78:	87 ff       	sbrs	r24, 7
     f7a:	fc cf       	rjmp	.-8      	; 0xf74 <begin+0x3fc>
     f7c:	80 91 44 06 	lds	r24, 0x0644
     f80:	80 61       	ori	r24, 0x10	; 16
     f82:	80 93 44 06 	sts	0x0644, r24
     f86:	80 91 44 06 	lds	r24, 0x0644
     f8a:	88 60       	ori	r24, 0x08	; 8
     f8c:	80 93 44 06 	sts	0x0644, r24
     f90:	80 91 44 06 	lds	r24, 0x0644
     f94:	8f 7e       	andi	r24, 0xEF	; 239
     f96:	80 93 44 06 	sts	0x0644, r24
     f9a:	81 e8       	ldi	r24, 0x81	; 129
     f9c:	80 93 e3 08 	sts	0x08E3, r24
     fa0:	80 91 e2 08 	lds	r24, 0x08E2
     fa4:	87 ff       	sbrs	r24, 7
     fa6:	fc cf       	rjmp	.-8      	; 0xfa0 <begin+0x428>
     fa8:	80 91 44 06 	lds	r24, 0x0644
     fac:	80 61       	ori	r24, 0x10	; 16
     fae:	80 93 44 06 	sts	0x0644, r24
     fb2:	80 91 44 06 	lds	r24, 0x0644
     fb6:	87 7e       	andi	r24, 0xE7	; 231
     fb8:	80 93 44 06 	sts	0x0644, r24
     fbc:	87 ef       	ldi	r24, 0xF7	; 247
     fbe:	80 93 e3 08 	sts	0x08E3, r24
     fc2:	80 91 e2 08 	lds	r24, 0x08E2
     fc6:	87 ff       	sbrs	r24, 7
     fc8:	fc cf       	rjmp	.-8      	; 0xfc2 <begin+0x44a>
     fca:	80 91 44 06 	lds	r24, 0x0644
     fce:	80 61       	ori	r24, 0x10	; 16
     fd0:	80 93 44 06 	sts	0x0644, r24
     fd4:	80 91 44 06 	lds	r24, 0x0644
     fd8:	88 60       	ori	r24, 0x08	; 8
     fda:	80 93 44 06 	sts	0x0644, r24
     fde:	80 91 44 06 	lds	r24, 0x0644
     fe2:	8f 7e       	andi	r24, 0xEF	; 239
     fe4:	80 93 44 06 	sts	0x0644, r24
     fe8:	80 e2       	ldi	r24, 0x20	; 32
     fea:	80 93 e3 08 	sts	0x08E3, r24
     fee:	80 91 e2 08 	lds	r24, 0x08E2
     ff2:	87 ff       	sbrs	r24, 7
     ff4:	fc cf       	rjmp	.-8      	; 0xfee <begin+0x476>
     ff6:	80 91 44 06 	lds	r24, 0x0644
     ffa:	80 61       	ori	r24, 0x10	; 16
     ffc:	80 93 44 06 	sts	0x0644, r24
    1000:	80 91 44 06 	lds	r24, 0x0644
    1004:	87 7e       	andi	r24, 0xE7	; 231
    1006:	80 93 44 06 	sts	0x0644, r24
    100a:	80 ec       	ldi	r24, 0xC0	; 192
    100c:	80 93 e3 08 	sts	0x08E3, r24
    1010:	80 91 e2 08 	lds	r24, 0x08E2
    1014:	87 ff       	sbrs	r24, 7
    1016:	fc cf       	rjmp	.-8      	; 0x1010 <begin+0x498>
    1018:	80 91 44 06 	lds	r24, 0x0644
    101c:	80 61       	ori	r24, 0x10	; 16
    101e:	80 93 44 06 	sts	0x0644, r24
    1022:	80 91 44 06 	lds	r24, 0x0644
    1026:	88 60       	ori	r24, 0x08	; 8
    1028:	80 93 44 06 	sts	0x0644, r24
    102c:	80 91 44 06 	lds	r24, 0x0644
    1030:	8f 7e       	andi	r24, 0xEF	; 239
    1032:	80 93 44 06 	sts	0x0644, r24
    1036:	83 e2       	ldi	r24, 0x23	; 35
    1038:	80 93 e3 08 	sts	0x08E3, r24
    103c:	80 91 e2 08 	lds	r24, 0x08E2
    1040:	87 ff       	sbrs	r24, 7
    1042:	fc cf       	rjmp	.-8      	; 0x103c <begin+0x4c4>
    1044:	80 91 44 06 	lds	r24, 0x0644
    1048:	80 61       	ori	r24, 0x10	; 16
    104a:	80 93 44 06 	sts	0x0644, r24
    104e:	80 91 44 06 	lds	r24, 0x0644
    1052:	87 7e       	andi	r24, 0xE7	; 231
    1054:	80 93 44 06 	sts	0x0644, r24
    1058:	81 ec       	ldi	r24, 0xC1	; 193
    105a:	80 93 e3 08 	sts	0x08E3, r24
    105e:	80 91 e2 08 	lds	r24, 0x08E2
    1062:	87 ff       	sbrs	r24, 7
    1064:	fc cf       	rjmp	.-8      	; 0x105e <begin+0x4e6>
    1066:	80 91 44 06 	lds	r24, 0x0644
    106a:	80 61       	ori	r24, 0x10	; 16
    106c:	80 93 44 06 	sts	0x0644, r24
    1070:	80 91 44 06 	lds	r24, 0x0644
    1074:	88 60       	ori	r24, 0x08	; 8
    1076:	80 93 44 06 	sts	0x0644, r24
    107a:	80 91 44 06 	lds	r24, 0x0644
    107e:	8f 7e       	andi	r24, 0xEF	; 239
    1080:	80 93 44 06 	sts	0x0644, r24
    1084:	80 e1       	ldi	r24, 0x10	; 16
    1086:	80 93 e3 08 	sts	0x08E3, r24
    108a:	80 91 e2 08 	lds	r24, 0x08E2
    108e:	87 ff       	sbrs	r24, 7
    1090:	fc cf       	rjmp	.-8      	; 0x108a <begin+0x512>
    1092:	80 91 44 06 	lds	r24, 0x0644
    1096:	80 61       	ori	r24, 0x10	; 16
    1098:	80 93 44 06 	sts	0x0644, r24
    109c:	80 91 44 06 	lds	r24, 0x0644
    10a0:	87 7e       	andi	r24, 0xE7	; 231
    10a2:	80 93 44 06 	sts	0x0644, r24
    10a6:	85 ec       	ldi	r24, 0xC5	; 197
    10a8:	80 93 e3 08 	sts	0x08E3, r24
    10ac:	80 91 e2 08 	lds	r24, 0x08E2
    10b0:	87 ff       	sbrs	r24, 7
    10b2:	fc cf       	rjmp	.-8      	; 0x10ac <begin+0x534>
    10b4:	80 91 44 06 	lds	r24, 0x0644
    10b8:	80 61       	ori	r24, 0x10	; 16
    10ba:	80 93 44 06 	sts	0x0644, r24
    10be:	80 91 44 06 	lds	r24, 0x0644
    10c2:	88 60       	ori	r24, 0x08	; 8
    10c4:	80 93 44 06 	sts	0x0644, r24
    10c8:	80 91 44 06 	lds	r24, 0x0644
    10cc:	8f 7e       	andi	r24, 0xEF	; 239
    10ce:	80 93 44 06 	sts	0x0644, r24
    10d2:	8e e3       	ldi	r24, 0x3E	; 62
    10d4:	80 93 e3 08 	sts	0x08E3, r24
    10d8:	80 91 e2 08 	lds	r24, 0x08E2
    10dc:	87 ff       	sbrs	r24, 7
    10de:	fc cf       	rjmp	.-8      	; 0x10d8 <begin+0x560>
    10e0:	80 91 44 06 	lds	r24, 0x0644
    10e4:	80 61       	ori	r24, 0x10	; 16
    10e6:	80 93 44 06 	sts	0x0644, r24
    10ea:	80 91 44 06 	lds	r24, 0x0644
    10ee:	88 60       	ori	r24, 0x08	; 8
    10f0:	80 93 44 06 	sts	0x0644, r24
    10f4:	80 91 44 06 	lds	r24, 0x0644
    10f8:	8f 7e       	andi	r24, 0xEF	; 239
    10fa:	80 93 44 06 	sts	0x0644, r24
    10fe:	88 e2       	ldi	r24, 0x28	; 40
    1100:	80 93 e3 08 	sts	0x08E3, r24
    1104:	80 91 e2 08 	lds	r24, 0x08E2
    1108:	87 ff       	sbrs	r24, 7
    110a:	fc cf       	rjmp	.-8      	; 0x1104 <begin+0x58c>
    110c:	80 91 44 06 	lds	r24, 0x0644
    1110:	80 61       	ori	r24, 0x10	; 16
    1112:	80 93 44 06 	sts	0x0644, r24
    1116:	80 91 44 06 	lds	r24, 0x0644
    111a:	87 7e       	andi	r24, 0xE7	; 231
    111c:	80 93 44 06 	sts	0x0644, r24
    1120:	87 ec       	ldi	r24, 0xC7	; 199
    1122:	80 93 e3 08 	sts	0x08E3, r24
    1126:	80 91 e2 08 	lds	r24, 0x08E2
    112a:	87 ff       	sbrs	r24, 7
    112c:	fc cf       	rjmp	.-8      	; 0x1126 <begin+0x5ae>
    112e:	80 91 44 06 	lds	r24, 0x0644
    1132:	80 61       	ori	r24, 0x10	; 16
    1134:	80 93 44 06 	sts	0x0644, r24
    1138:	80 91 44 06 	lds	r24, 0x0644
    113c:	88 60       	ori	r24, 0x08	; 8
    113e:	80 93 44 06 	sts	0x0644, r24
    1142:	80 91 44 06 	lds	r24, 0x0644
    1146:	8f 7e       	andi	r24, 0xEF	; 239
    1148:	80 93 44 06 	sts	0x0644, r24
    114c:	86 e8       	ldi	r24, 0x86	; 134
    114e:	80 93 e3 08 	sts	0x08E3, r24
    1152:	80 91 e2 08 	lds	r24, 0x08E2
    1156:	87 ff       	sbrs	r24, 7
    1158:	fc cf       	rjmp	.-8      	; 0x1152 <begin+0x5da>
    115a:	80 91 44 06 	lds	r24, 0x0644
    115e:	80 61       	ori	r24, 0x10	; 16
    1160:	80 93 44 06 	sts	0x0644, r24
    1164:	80 91 44 06 	lds	r24, 0x0644
    1168:	87 7e       	andi	r24, 0xE7	; 231
    116a:	80 93 44 06 	sts	0x0644, r24
    116e:	86 e3       	ldi	r24, 0x36	; 54
    1170:	80 93 e3 08 	sts	0x08E3, r24
    1174:	80 91 e2 08 	lds	r24, 0x08E2
    1178:	87 ff       	sbrs	r24, 7
    117a:	fc cf       	rjmp	.-8      	; 0x1174 <begin+0x5fc>
    117c:	80 91 44 06 	lds	r24, 0x0644
    1180:	80 61       	ori	r24, 0x10	; 16
    1182:	80 93 44 06 	sts	0x0644, r24
    1186:	80 91 44 06 	lds	r24, 0x0644
    118a:	88 60       	ori	r24, 0x08	; 8
    118c:	80 93 44 06 	sts	0x0644, r24
    1190:	80 91 44 06 	lds	r24, 0x0644
    1194:	8f 7e       	andi	r24, 0xEF	; 239
    1196:	80 93 44 06 	sts	0x0644, r24
    119a:	88 e4       	ldi	r24, 0x48	; 72
    119c:	80 93 e3 08 	sts	0x08E3, r24
    11a0:	80 91 e2 08 	lds	r24, 0x08E2
    11a4:	87 ff       	sbrs	r24, 7
    11a6:	fc cf       	rjmp	.-8      	; 0x11a0 <begin+0x628>
    11a8:	80 91 44 06 	lds	r24, 0x0644
    11ac:	80 61       	ori	r24, 0x10	; 16
    11ae:	80 93 44 06 	sts	0x0644, r24
    11b2:	80 91 44 06 	lds	r24, 0x0644
    11b6:	87 7e       	andi	r24, 0xE7	; 231
    11b8:	80 93 44 06 	sts	0x0644, r24
    11bc:	8a e3       	ldi	r24, 0x3A	; 58
    11be:	80 93 e3 08 	sts	0x08E3, r24
    11c2:	80 91 e2 08 	lds	r24, 0x08E2
    11c6:	87 ff       	sbrs	r24, 7
    11c8:	fc cf       	rjmp	.-8      	; 0x11c2 <begin+0x64a>
    11ca:	80 91 44 06 	lds	r24, 0x0644
    11ce:	80 61       	ori	r24, 0x10	; 16
    11d0:	80 93 44 06 	sts	0x0644, r24
    11d4:	80 91 44 06 	lds	r24, 0x0644
    11d8:	88 60       	ori	r24, 0x08	; 8
    11da:	80 93 44 06 	sts	0x0644, r24
    11de:	80 91 44 06 	lds	r24, 0x0644
    11e2:	8f 7e       	andi	r24, 0xEF	; 239
    11e4:	80 93 44 06 	sts	0x0644, r24
    11e8:	85 e5       	ldi	r24, 0x55	; 85
    11ea:	80 93 e3 08 	sts	0x08E3, r24
    11ee:	80 91 e2 08 	lds	r24, 0x08E2
    11f2:	87 ff       	sbrs	r24, 7
    11f4:	fc cf       	rjmp	.-8      	; 0x11ee <begin+0x676>
    11f6:	80 91 44 06 	lds	r24, 0x0644
    11fa:	80 61       	ori	r24, 0x10	; 16
    11fc:	80 93 44 06 	sts	0x0644, r24
    1200:	80 91 44 06 	lds	r24, 0x0644
    1204:	87 7e       	andi	r24, 0xE7	; 231
    1206:	80 93 44 06 	sts	0x0644, r24
    120a:	81 eb       	ldi	r24, 0xB1	; 177
    120c:	80 93 e3 08 	sts	0x08E3, r24
    1210:	80 91 e2 08 	lds	r24, 0x08E2
    1214:	87 ff       	sbrs	r24, 7
    1216:	fc cf       	rjmp	.-8      	; 0x1210 <begin+0x698>
    1218:	80 91 44 06 	lds	r24, 0x0644
    121c:	80 61       	ori	r24, 0x10	; 16
    121e:	80 93 44 06 	sts	0x0644, r24
    1222:	80 91 44 06 	lds	r24, 0x0644
    1226:	88 60       	ori	r24, 0x08	; 8
    1228:	80 93 44 06 	sts	0x0644, r24
    122c:	80 91 44 06 	lds	r24, 0x0644
    1230:	8f 7e       	andi	r24, 0xEF	; 239
    1232:	80 93 44 06 	sts	0x0644, r24
    1236:	10 92 e3 08 	sts	0x08E3, r1
    123a:	80 91 e2 08 	lds	r24, 0x08E2
    123e:	87 ff       	sbrs	r24, 7
    1240:	fc cf       	rjmp	.-8      	; 0x123a <begin+0x6c2>
    1242:	80 91 44 06 	lds	r24, 0x0644
    1246:	80 61       	ori	r24, 0x10	; 16
    1248:	80 93 44 06 	sts	0x0644, r24
    124c:	80 91 44 06 	lds	r24, 0x0644
    1250:	88 60       	ori	r24, 0x08	; 8
    1252:	80 93 44 06 	sts	0x0644, r24
    1256:	80 91 44 06 	lds	r24, 0x0644
    125a:	8f 7e       	andi	r24, 0xEF	; 239
    125c:	80 93 44 06 	sts	0x0644, r24
    1260:	88 e1       	ldi	r24, 0x18	; 24
    1262:	80 93 e3 08 	sts	0x08E3, r24
    1266:	80 91 e2 08 	lds	r24, 0x08E2
    126a:	87 ff       	sbrs	r24, 7
    126c:	fc cf       	rjmp	.-8      	; 0x1266 <begin+0x6ee>
    126e:	80 91 44 06 	lds	r24, 0x0644
    1272:	80 61       	ori	r24, 0x10	; 16
    1274:	80 93 44 06 	sts	0x0644, r24
    1278:	80 91 44 06 	lds	r24, 0x0644
    127c:	87 7e       	andi	r24, 0xE7	; 231
    127e:	80 93 44 06 	sts	0x0644, r24
    1282:	86 eb       	ldi	r24, 0xB6	; 182
    1284:	80 93 e3 08 	sts	0x08E3, r24
    1288:	80 91 e2 08 	lds	r24, 0x08E2
    128c:	87 ff       	sbrs	r24, 7
    128e:	fc cf       	rjmp	.-8      	; 0x1288 <begin+0x710>
    1290:	80 91 44 06 	lds	r24, 0x0644
    1294:	80 61       	ori	r24, 0x10	; 16
    1296:	80 93 44 06 	sts	0x0644, r24
    129a:	80 91 44 06 	lds	r24, 0x0644
    129e:	88 60       	ori	r24, 0x08	; 8
    12a0:	80 93 44 06 	sts	0x0644, r24
    12a4:	80 91 44 06 	lds	r24, 0x0644
    12a8:	8f 7e       	andi	r24, 0xEF	; 239
    12aa:	80 93 44 06 	sts	0x0644, r24
    12ae:	88 e0       	ldi	r24, 0x08	; 8
    12b0:	80 93 e3 08 	sts	0x08E3, r24
    12b4:	80 91 e2 08 	lds	r24, 0x08E2
    12b8:	87 ff       	sbrs	r24, 7
    12ba:	fc cf       	rjmp	.-8      	; 0x12b4 <begin+0x73c>
    12bc:	80 91 44 06 	lds	r24, 0x0644
    12c0:	80 61       	ori	r24, 0x10	; 16
    12c2:	80 93 44 06 	sts	0x0644, r24
    12c6:	80 91 44 06 	lds	r24, 0x0644
    12ca:	88 60       	ori	r24, 0x08	; 8
    12cc:	80 93 44 06 	sts	0x0644, r24
    12d0:	80 91 44 06 	lds	r24, 0x0644
    12d4:	8f 7e       	andi	r24, 0xEF	; 239
    12d6:	80 93 44 06 	sts	0x0644, r24
    12da:	82 e8       	ldi	r24, 0x82	; 130
    12dc:	80 93 e3 08 	sts	0x08E3, r24
    12e0:	80 91 e2 08 	lds	r24, 0x08E2
    12e4:	87 ff       	sbrs	r24, 7
    12e6:	fc cf       	rjmp	.-8      	; 0x12e0 <begin+0x768>
    12e8:	80 91 44 06 	lds	r24, 0x0644
    12ec:	80 61       	ori	r24, 0x10	; 16
    12ee:	80 93 44 06 	sts	0x0644, r24
    12f2:	80 91 44 06 	lds	r24, 0x0644
    12f6:	88 60       	ori	r24, 0x08	; 8
    12f8:	80 93 44 06 	sts	0x0644, r24
    12fc:	80 91 44 06 	lds	r24, 0x0644
    1300:	8f 7e       	andi	r24, 0xEF	; 239
    1302:	80 93 44 06 	sts	0x0644, r24
    1306:	87 e2       	ldi	r24, 0x27	; 39
    1308:	80 93 e3 08 	sts	0x08E3, r24
    130c:	80 91 e2 08 	lds	r24, 0x08E2
    1310:	87 ff       	sbrs	r24, 7
    1312:	fc cf       	rjmp	.-8      	; 0x130c <begin+0x794>
    1314:	80 91 44 06 	lds	r24, 0x0644
    1318:	80 61       	ori	r24, 0x10	; 16
    131a:	80 93 44 06 	sts	0x0644, r24
    131e:	80 91 44 06 	lds	r24, 0x0644
    1322:	87 7e       	andi	r24, 0xE7	; 231
    1324:	80 93 44 06 	sts	0x0644, r24
    1328:	82 ef       	ldi	r24, 0xF2	; 242
    132a:	80 93 e3 08 	sts	0x08E3, r24
    132e:	80 91 e2 08 	lds	r24, 0x08E2
    1332:	87 ff       	sbrs	r24, 7
    1334:	fc cf       	rjmp	.-8      	; 0x132e <begin+0x7b6>
    1336:	80 91 44 06 	lds	r24, 0x0644
    133a:	80 61       	ori	r24, 0x10	; 16
    133c:	80 93 44 06 	sts	0x0644, r24
    1340:	80 91 44 06 	lds	r24, 0x0644
    1344:	88 60       	ori	r24, 0x08	; 8
    1346:	80 93 44 06 	sts	0x0644, r24
    134a:	80 91 44 06 	lds	r24, 0x0644
    134e:	8f 7e       	andi	r24, 0xEF	; 239
    1350:	80 93 44 06 	sts	0x0644, r24
    1354:	10 92 e3 08 	sts	0x08E3, r1
    1358:	80 91 e2 08 	lds	r24, 0x08E2
    135c:	87 ff       	sbrs	r24, 7
    135e:	fc cf       	rjmp	.-8      	; 0x1358 <begin+0x7e0>
    1360:	80 91 44 06 	lds	r24, 0x0644
    1364:	80 61       	ori	r24, 0x10	; 16
    1366:	80 93 44 06 	sts	0x0644, r24
    136a:	80 91 44 06 	lds	r24, 0x0644
    136e:	87 7e       	andi	r24, 0xE7	; 231
    1370:	80 93 44 06 	sts	0x0644, r24
    1374:	86 e2       	ldi	r24, 0x26	; 38
    1376:	80 93 e3 08 	sts	0x08E3, r24
    137a:	80 91 e2 08 	lds	r24, 0x08E2
    137e:	87 ff       	sbrs	r24, 7
    1380:	fc cf       	rjmp	.-8      	; 0x137a <begin+0x802>
    1382:	80 91 44 06 	lds	r24, 0x0644
    1386:	80 61       	ori	r24, 0x10	; 16
    1388:	80 93 44 06 	sts	0x0644, r24
    138c:	80 91 44 06 	lds	r24, 0x0644
    1390:	88 60       	ori	r24, 0x08	; 8
    1392:	80 93 44 06 	sts	0x0644, r24
    1396:	80 91 44 06 	lds	r24, 0x0644
    139a:	8f 7e       	andi	r24, 0xEF	; 239
    139c:	80 93 44 06 	sts	0x0644, r24
    13a0:	81 e0       	ldi	r24, 0x01	; 1
    13a2:	80 93 e3 08 	sts	0x08E3, r24
    13a6:	80 91 e2 08 	lds	r24, 0x08E2
    13aa:	87 ff       	sbrs	r24, 7
    13ac:	fc cf       	rjmp	.-8      	; 0x13a6 <begin+0x82e>
    13ae:	80 91 44 06 	lds	r24, 0x0644
    13b2:	80 61       	ori	r24, 0x10	; 16
    13b4:	80 93 44 06 	sts	0x0644, r24
    13b8:	80 91 44 06 	lds	r24, 0x0644
    13bc:	87 7e       	andi	r24, 0xE7	; 231
    13be:	80 93 44 06 	sts	0x0644, r24
    13c2:	80 ee       	ldi	r24, 0xE0	; 224
    13c4:	80 93 e3 08 	sts	0x08E3, r24
    13c8:	80 91 e2 08 	lds	r24, 0x08E2
    13cc:	87 ff       	sbrs	r24, 7
    13ce:	fc cf       	rjmp	.-8      	; 0x13c8 <begin+0x850>
    13d0:	80 91 44 06 	lds	r24, 0x0644
    13d4:	80 61       	ori	r24, 0x10	; 16
    13d6:	80 93 44 06 	sts	0x0644, r24
    13da:	80 91 44 06 	lds	r24, 0x0644
    13de:	88 60       	ori	r24, 0x08	; 8
    13e0:	80 93 44 06 	sts	0x0644, r24
    13e4:	80 91 44 06 	lds	r24, 0x0644
    13e8:	8f 7e       	andi	r24, 0xEF	; 239
    13ea:	80 93 44 06 	sts	0x0644, r24
    13ee:	8f e0       	ldi	r24, 0x0F	; 15
    13f0:	80 93 e3 08 	sts	0x08E3, r24
    13f4:	80 91 e2 08 	lds	r24, 0x08E2
    13f8:	87 ff       	sbrs	r24, 7
    13fa:	fc cf       	rjmp	.-8      	; 0x13f4 <begin+0x87c>
    13fc:	80 91 44 06 	lds	r24, 0x0644
    1400:	80 61       	ori	r24, 0x10	; 16
    1402:	80 93 44 06 	sts	0x0644, r24
    1406:	80 91 44 06 	lds	r24, 0x0644
    140a:	88 60       	ori	r24, 0x08	; 8
    140c:	80 93 44 06 	sts	0x0644, r24
    1410:	80 91 44 06 	lds	r24, 0x0644
    1414:	8f 7e       	andi	r24, 0xEF	; 239
    1416:	80 93 44 06 	sts	0x0644, r24
    141a:	81 e3       	ldi	r24, 0x31	; 49
    141c:	80 93 e3 08 	sts	0x08E3, r24
    1420:	80 91 e2 08 	lds	r24, 0x08E2
    1424:	87 ff       	sbrs	r24, 7
    1426:	fc cf       	rjmp	.-8      	; 0x1420 <begin+0x8a8>
    1428:	80 91 44 06 	lds	r24, 0x0644
    142c:	80 61       	ori	r24, 0x10	; 16
    142e:	80 93 44 06 	sts	0x0644, r24
    1432:	80 91 44 06 	lds	r24, 0x0644
    1436:	88 60       	ori	r24, 0x08	; 8
    1438:	80 93 44 06 	sts	0x0644, r24
    143c:	80 91 44 06 	lds	r24, 0x0644
    1440:	8f 7e       	andi	r24, 0xEF	; 239
    1442:	80 93 44 06 	sts	0x0644, r24
    1446:	8b e2       	ldi	r24, 0x2B	; 43
    1448:	80 93 e3 08 	sts	0x08E3, r24
    144c:	80 91 e2 08 	lds	r24, 0x08E2
    1450:	87 ff       	sbrs	r24, 7
    1452:	fc cf       	rjmp	.-8      	; 0x144c <begin+0x8d4>
    1454:	80 91 44 06 	lds	r24, 0x0644
    1458:	80 61       	ori	r24, 0x10	; 16
    145a:	80 93 44 06 	sts	0x0644, r24
    145e:	80 91 44 06 	lds	r24, 0x0644
    1462:	88 60       	ori	r24, 0x08	; 8
    1464:	80 93 44 06 	sts	0x0644, r24
    1468:	80 91 44 06 	lds	r24, 0x0644
    146c:	8f 7e       	andi	r24, 0xEF	; 239
    146e:	80 93 44 06 	sts	0x0644, r24
    1472:	8c e0       	ldi	r24, 0x0C	; 12
    1474:	80 93 e3 08 	sts	0x08E3, r24
    1478:	80 91 e2 08 	lds	r24, 0x08E2
    147c:	87 ff       	sbrs	r24, 7
    147e:	fc cf       	rjmp	.-8      	; 0x1478 <begin+0x900>
    1480:	80 91 44 06 	lds	r24, 0x0644
    1484:	80 61       	ori	r24, 0x10	; 16
    1486:	80 93 44 06 	sts	0x0644, r24
    148a:	80 91 44 06 	lds	r24, 0x0644
    148e:	88 60       	ori	r24, 0x08	; 8
    1490:	80 93 44 06 	sts	0x0644, r24
    1494:	80 91 44 06 	lds	r24, 0x0644
    1498:	8f 7e       	andi	r24, 0xEF	; 239
    149a:	80 93 44 06 	sts	0x0644, r24
    149e:	8e e0       	ldi	r24, 0x0E	; 14
    14a0:	80 93 e3 08 	sts	0x08E3, r24
    14a4:	80 91 e2 08 	lds	r24, 0x08E2
    14a8:	87 ff       	sbrs	r24, 7
    14aa:	fc cf       	rjmp	.-8      	; 0x14a4 <begin+0x92c>
    14ac:	80 91 44 06 	lds	r24, 0x0644
    14b0:	80 61       	ori	r24, 0x10	; 16
    14b2:	80 93 44 06 	sts	0x0644, r24
    14b6:	80 91 44 06 	lds	r24, 0x0644
    14ba:	88 60       	ori	r24, 0x08	; 8
    14bc:	80 93 44 06 	sts	0x0644, r24
    14c0:	80 91 44 06 	lds	r24, 0x0644
    14c4:	8f 7e       	andi	r24, 0xEF	; 239
    14c6:	80 93 44 06 	sts	0x0644, r24
    14ca:	88 e0       	ldi	r24, 0x08	; 8
    14cc:	80 93 e3 08 	sts	0x08E3, r24
    14d0:	80 91 e2 08 	lds	r24, 0x08E2
    14d4:	87 ff       	sbrs	r24, 7
    14d6:	fc cf       	rjmp	.-8      	; 0x14d0 <begin+0x958>
    14d8:	80 91 44 06 	lds	r24, 0x0644
    14dc:	80 61       	ori	r24, 0x10	; 16
    14de:	80 93 44 06 	sts	0x0644, r24
    14e2:	80 91 44 06 	lds	r24, 0x0644
    14e6:	88 60       	ori	r24, 0x08	; 8
    14e8:	80 93 44 06 	sts	0x0644, r24
    14ec:	80 91 44 06 	lds	r24, 0x0644
    14f0:	8f 7e       	andi	r24, 0xEF	; 239
    14f2:	80 93 44 06 	sts	0x0644, r24
    14f6:	8e e4       	ldi	r24, 0x4E	; 78
    14f8:	80 93 e3 08 	sts	0x08E3, r24
    14fc:	80 91 e2 08 	lds	r24, 0x08E2
    1500:	87 ff       	sbrs	r24, 7
    1502:	fc cf       	rjmp	.-8      	; 0x14fc <begin+0x984>
    1504:	80 91 44 06 	lds	r24, 0x0644
    1508:	80 61       	ori	r24, 0x10	; 16
    150a:	80 93 44 06 	sts	0x0644, r24
    150e:	80 91 44 06 	lds	r24, 0x0644
    1512:	88 60       	ori	r24, 0x08	; 8
    1514:	80 93 44 06 	sts	0x0644, r24
    1518:	80 91 44 06 	lds	r24, 0x0644
    151c:	8f 7e       	andi	r24, 0xEF	; 239
    151e:	80 93 44 06 	sts	0x0644, r24
    1522:	81 ef       	ldi	r24, 0xF1	; 241
    1524:	80 93 e3 08 	sts	0x08E3, r24
    1528:	80 91 e2 08 	lds	r24, 0x08E2
    152c:	87 ff       	sbrs	r24, 7
    152e:	fc cf       	rjmp	.-8      	; 0x1528 <begin+0x9b0>
    1530:	80 91 44 06 	lds	r24, 0x0644
    1534:	80 61       	ori	r24, 0x10	; 16
    1536:	80 93 44 06 	sts	0x0644, r24
    153a:	80 91 44 06 	lds	r24, 0x0644
    153e:	88 60       	ori	r24, 0x08	; 8
    1540:	80 93 44 06 	sts	0x0644, r24
    1544:	80 91 44 06 	lds	r24, 0x0644
    1548:	8f 7e       	andi	r24, 0xEF	; 239
    154a:	80 93 44 06 	sts	0x0644, r24
    154e:	87 e3       	ldi	r24, 0x37	; 55
    1550:	80 93 e3 08 	sts	0x08E3, r24
    1554:	80 91 e2 08 	lds	r24, 0x08E2
    1558:	87 ff       	sbrs	r24, 7
    155a:	fc cf       	rjmp	.-8      	; 0x1554 <begin+0x9dc>
    155c:	80 91 44 06 	lds	r24, 0x0644
    1560:	80 61       	ori	r24, 0x10	; 16
    1562:	80 93 44 06 	sts	0x0644, r24
    1566:	80 91 44 06 	lds	r24, 0x0644
    156a:	88 60       	ori	r24, 0x08	; 8
    156c:	80 93 44 06 	sts	0x0644, r24
    1570:	80 91 44 06 	lds	r24, 0x0644
    1574:	8f 7e       	andi	r24, 0xEF	; 239
    1576:	80 93 44 06 	sts	0x0644, r24
    157a:	87 e0       	ldi	r24, 0x07	; 7
    157c:	80 93 e3 08 	sts	0x08E3, r24
    1580:	80 91 e2 08 	lds	r24, 0x08E2
    1584:	87 ff       	sbrs	r24, 7
    1586:	fc cf       	rjmp	.-8      	; 0x1580 <begin+0xa08>
    1588:	80 91 44 06 	lds	r24, 0x0644
    158c:	80 61       	ori	r24, 0x10	; 16
    158e:	80 93 44 06 	sts	0x0644, r24
    1592:	80 91 44 06 	lds	r24, 0x0644
    1596:	88 60       	ori	r24, 0x08	; 8
    1598:	80 93 44 06 	sts	0x0644, r24
    159c:	80 91 44 06 	lds	r24, 0x0644
    15a0:	8f 7e       	andi	r24, 0xEF	; 239
    15a2:	80 93 44 06 	sts	0x0644, r24
    15a6:	80 e1       	ldi	r24, 0x10	; 16
    15a8:	80 93 e3 08 	sts	0x08E3, r24
    15ac:	80 91 e2 08 	lds	r24, 0x08E2
    15b0:	87 ff       	sbrs	r24, 7
    15b2:	fc cf       	rjmp	.-8      	; 0x15ac <begin+0xa34>
    15b4:	80 91 44 06 	lds	r24, 0x0644
    15b8:	80 61       	ori	r24, 0x10	; 16
    15ba:	80 93 44 06 	sts	0x0644, r24
    15be:	80 91 44 06 	lds	r24, 0x0644
    15c2:	88 60       	ori	r24, 0x08	; 8
    15c4:	80 93 44 06 	sts	0x0644, r24
    15c8:	80 91 44 06 	lds	r24, 0x0644
    15cc:	8f 7e       	andi	r24, 0xEF	; 239
    15ce:	80 93 44 06 	sts	0x0644, r24
    15d2:	83 e0       	ldi	r24, 0x03	; 3
    15d4:	80 93 e3 08 	sts	0x08E3, r24
    15d8:	80 91 e2 08 	lds	r24, 0x08E2
    15dc:	87 ff       	sbrs	r24, 7
    15de:	fc cf       	rjmp	.-8      	; 0x15d8 <begin+0xa60>
    15e0:	80 91 44 06 	lds	r24, 0x0644
    15e4:	80 61       	ori	r24, 0x10	; 16
    15e6:	80 93 44 06 	sts	0x0644, r24
    15ea:	80 91 44 06 	lds	r24, 0x0644
    15ee:	88 60       	ori	r24, 0x08	; 8
    15f0:	80 93 44 06 	sts	0x0644, r24
    15f4:	80 91 44 06 	lds	r24, 0x0644
    15f8:	8f 7e       	andi	r24, 0xEF	; 239
    15fa:	80 93 44 06 	sts	0x0644, r24
    15fe:	8e e0       	ldi	r24, 0x0E	; 14
    1600:	80 93 e3 08 	sts	0x08E3, r24
    1604:	80 91 e2 08 	lds	r24, 0x08E2
    1608:	87 ff       	sbrs	r24, 7
    160a:	fc cf       	rjmp	.-8      	; 0x1604 <begin+0xa8c>
    160c:	80 91 44 06 	lds	r24, 0x0644
    1610:	80 61       	ori	r24, 0x10	; 16
    1612:	80 93 44 06 	sts	0x0644, r24
    1616:	80 91 44 06 	lds	r24, 0x0644
    161a:	88 60       	ori	r24, 0x08	; 8
    161c:	80 93 44 06 	sts	0x0644, r24
    1620:	80 91 44 06 	lds	r24, 0x0644
    1624:	8f 7e       	andi	r24, 0xEF	; 239
    1626:	80 93 44 06 	sts	0x0644, r24
    162a:	89 e0       	ldi	r24, 0x09	; 9
    162c:	80 93 e3 08 	sts	0x08E3, r24
    1630:	80 91 e2 08 	lds	r24, 0x08E2
    1634:	87 ff       	sbrs	r24, 7
    1636:	fc cf       	rjmp	.-8      	; 0x1630 <begin+0xab8>
    1638:	80 91 44 06 	lds	r24, 0x0644
    163c:	80 61       	ori	r24, 0x10	; 16
    163e:	80 93 44 06 	sts	0x0644, r24
    1642:	80 91 44 06 	lds	r24, 0x0644
    1646:	88 60       	ori	r24, 0x08	; 8
    1648:	80 93 44 06 	sts	0x0644, r24
    164c:	80 91 44 06 	lds	r24, 0x0644
    1650:	8f 7e       	andi	r24, 0xEF	; 239
    1652:	80 93 44 06 	sts	0x0644, r24
    1656:	10 92 e3 08 	sts	0x08E3, r1
    165a:	80 91 e2 08 	lds	r24, 0x08E2
    165e:	87 ff       	sbrs	r24, 7
    1660:	fc cf       	rjmp	.-8      	; 0x165a <begin+0xae2>
    1662:	80 91 44 06 	lds	r24, 0x0644
    1666:	80 61       	ori	r24, 0x10	; 16
    1668:	80 93 44 06 	sts	0x0644, r24
    166c:	80 91 44 06 	lds	r24, 0x0644
    1670:	87 7e       	andi	r24, 0xE7	; 231
    1672:	80 93 44 06 	sts	0x0644, r24
    1676:	81 ee       	ldi	r24, 0xE1	; 225
    1678:	80 93 e3 08 	sts	0x08E3, r24
    167c:	80 91 e2 08 	lds	r24, 0x08E2
    1680:	87 ff       	sbrs	r24, 7
    1682:	fc cf       	rjmp	.-8      	; 0x167c <begin+0xb04>
    1684:	80 91 44 06 	lds	r24, 0x0644
    1688:	80 61       	ori	r24, 0x10	; 16
    168a:	80 93 44 06 	sts	0x0644, r24
    168e:	80 91 44 06 	lds	r24, 0x0644
    1692:	88 60       	ori	r24, 0x08	; 8
    1694:	80 93 44 06 	sts	0x0644, r24
    1698:	80 91 44 06 	lds	r24, 0x0644
    169c:	8f 7e       	andi	r24, 0xEF	; 239
    169e:	80 93 44 06 	sts	0x0644, r24
    16a2:	10 92 e3 08 	sts	0x08E3, r1
    16a6:	80 91 e2 08 	lds	r24, 0x08E2
    16aa:	87 ff       	sbrs	r24, 7
    16ac:	fc cf       	rjmp	.-8      	; 0x16a6 <begin+0xb2e>
    16ae:	80 91 44 06 	lds	r24, 0x0644
    16b2:	80 61       	ori	r24, 0x10	; 16
    16b4:	80 93 44 06 	sts	0x0644, r24
    16b8:	80 91 44 06 	lds	r24, 0x0644
    16bc:	88 60       	ori	r24, 0x08	; 8
    16be:	80 93 44 06 	sts	0x0644, r24
    16c2:	80 91 44 06 	lds	r24, 0x0644
    16c6:	8f 7e       	andi	r24, 0xEF	; 239
    16c8:	80 93 44 06 	sts	0x0644, r24
    16cc:	8e e0       	ldi	r24, 0x0E	; 14
    16ce:	80 93 e3 08 	sts	0x08E3, r24
    16d2:	80 91 e2 08 	lds	r24, 0x08E2
    16d6:	87 ff       	sbrs	r24, 7
    16d8:	fc cf       	rjmp	.-8      	; 0x16d2 <begin+0xb5a>
    16da:	80 91 44 06 	lds	r24, 0x0644
    16de:	80 61       	ori	r24, 0x10	; 16
    16e0:	80 93 44 06 	sts	0x0644, r24
    16e4:	80 91 44 06 	lds	r24, 0x0644
    16e8:	88 60       	ori	r24, 0x08	; 8
    16ea:	80 93 44 06 	sts	0x0644, r24
    16ee:	80 91 44 06 	lds	r24, 0x0644
    16f2:	8f 7e       	andi	r24, 0xEF	; 239
    16f4:	80 93 44 06 	sts	0x0644, r24
    16f8:	84 e1       	ldi	r24, 0x14	; 20
    16fa:	80 93 e3 08 	sts	0x08E3, r24
    16fe:	80 91 e2 08 	lds	r24, 0x08E2
    1702:	87 ff       	sbrs	r24, 7
    1704:	fc cf       	rjmp	.-8      	; 0x16fe <begin+0xb86>
    1706:	80 91 44 06 	lds	r24, 0x0644
    170a:	80 61       	ori	r24, 0x10	; 16
    170c:	80 93 44 06 	sts	0x0644, r24
    1710:	80 91 44 06 	lds	r24, 0x0644
    1714:	88 60       	ori	r24, 0x08	; 8
    1716:	80 93 44 06 	sts	0x0644, r24
    171a:	80 91 44 06 	lds	r24, 0x0644
    171e:	8f 7e       	andi	r24, 0xEF	; 239
    1720:	80 93 44 06 	sts	0x0644, r24
    1724:	83 e0       	ldi	r24, 0x03	; 3
    1726:	80 93 e3 08 	sts	0x08E3, r24
    172a:	80 91 e2 08 	lds	r24, 0x08E2
    172e:	87 ff       	sbrs	r24, 7
    1730:	fc cf       	rjmp	.-8      	; 0x172a <begin+0xbb2>
    1732:	80 91 44 06 	lds	r24, 0x0644
    1736:	80 61       	ori	r24, 0x10	; 16
    1738:	80 93 44 06 	sts	0x0644, r24
    173c:	80 91 44 06 	lds	r24, 0x0644
    1740:	88 60       	ori	r24, 0x08	; 8
    1742:	80 93 44 06 	sts	0x0644, r24
    1746:	80 91 44 06 	lds	r24, 0x0644
    174a:	8f 7e       	andi	r24, 0xEF	; 239
    174c:	80 93 44 06 	sts	0x0644, r24
    1750:	81 e1       	ldi	r24, 0x11	; 17
    1752:	80 93 e3 08 	sts	0x08E3, r24
    1756:	80 91 e2 08 	lds	r24, 0x08E2
    175a:	87 ff       	sbrs	r24, 7
    175c:	fc cf       	rjmp	.-8      	; 0x1756 <begin+0xbde>
    175e:	80 91 44 06 	lds	r24, 0x0644
    1762:	80 61       	ori	r24, 0x10	; 16
    1764:	80 93 44 06 	sts	0x0644, r24
    1768:	80 91 44 06 	lds	r24, 0x0644
    176c:	88 60       	ori	r24, 0x08	; 8
    176e:	80 93 44 06 	sts	0x0644, r24
    1772:	80 91 44 06 	lds	r24, 0x0644
    1776:	8f 7e       	andi	r24, 0xEF	; 239
    1778:	80 93 44 06 	sts	0x0644, r24
    177c:	87 e0       	ldi	r24, 0x07	; 7
    177e:	80 93 e3 08 	sts	0x08E3, r24
    1782:	80 91 e2 08 	lds	r24, 0x08E2
    1786:	87 ff       	sbrs	r24, 7
    1788:	fc cf       	rjmp	.-8      	; 0x1782 <begin+0xc0a>
    178a:	80 91 44 06 	lds	r24, 0x0644
    178e:	80 61       	ori	r24, 0x10	; 16
    1790:	80 93 44 06 	sts	0x0644, r24
    1794:	80 91 44 06 	lds	r24, 0x0644
    1798:	88 60       	ori	r24, 0x08	; 8
    179a:	80 93 44 06 	sts	0x0644, r24
    179e:	80 91 44 06 	lds	r24, 0x0644
    17a2:	8f 7e       	andi	r24, 0xEF	; 239
    17a4:	80 93 44 06 	sts	0x0644, r24
    17a8:	81 e3       	ldi	r24, 0x31	; 49
    17aa:	80 93 e3 08 	sts	0x08E3, r24
    17ae:	80 91 e2 08 	lds	r24, 0x08E2
    17b2:	87 ff       	sbrs	r24, 7
    17b4:	fc cf       	rjmp	.-8      	; 0x17ae <begin+0xc36>
    17b6:	80 91 44 06 	lds	r24, 0x0644
    17ba:	80 61       	ori	r24, 0x10	; 16
    17bc:	80 93 44 06 	sts	0x0644, r24
    17c0:	80 91 44 06 	lds	r24, 0x0644
    17c4:	88 60       	ori	r24, 0x08	; 8
    17c6:	80 93 44 06 	sts	0x0644, r24
    17ca:	80 91 44 06 	lds	r24, 0x0644
    17ce:	8f 7e       	andi	r24, 0xEF	; 239
    17d0:	80 93 44 06 	sts	0x0644, r24
    17d4:	81 ec       	ldi	r24, 0xC1	; 193
    17d6:	80 93 e3 08 	sts	0x08E3, r24
    17da:	80 91 e2 08 	lds	r24, 0x08E2
    17de:	87 ff       	sbrs	r24, 7
    17e0:	fc cf       	rjmp	.-8      	; 0x17da <begin+0xc62>
    17e2:	80 91 44 06 	lds	r24, 0x0644
    17e6:	80 61       	ori	r24, 0x10	; 16
    17e8:	80 93 44 06 	sts	0x0644, r24
    17ec:	80 91 44 06 	lds	r24, 0x0644
    17f0:	88 60       	ori	r24, 0x08	; 8
    17f2:	80 93 44 06 	sts	0x0644, r24
    17f6:	80 91 44 06 	lds	r24, 0x0644
    17fa:	8f 7e       	andi	r24, 0xEF	; 239
    17fc:	80 93 44 06 	sts	0x0644, r24
    1800:	88 e4       	ldi	r24, 0x48	; 72
    1802:	80 93 e3 08 	sts	0x08E3, r24
    1806:	80 91 e2 08 	lds	r24, 0x08E2
    180a:	87 ff       	sbrs	r24, 7
    180c:	fc cf       	rjmp	.-8      	; 0x1806 <begin+0xc8e>
    180e:	80 91 44 06 	lds	r24, 0x0644
    1812:	80 61       	ori	r24, 0x10	; 16
    1814:	80 93 44 06 	sts	0x0644, r24
    1818:	80 91 44 06 	lds	r24, 0x0644
    181c:	88 60       	ori	r24, 0x08	; 8
    181e:	80 93 44 06 	sts	0x0644, r24
    1822:	80 91 44 06 	lds	r24, 0x0644
    1826:	8f 7e       	andi	r24, 0xEF	; 239
    1828:	80 93 44 06 	sts	0x0644, r24
    182c:	88 e0       	ldi	r24, 0x08	; 8
    182e:	80 93 e3 08 	sts	0x08E3, r24
    1832:	80 91 e2 08 	lds	r24, 0x08E2
    1836:	87 ff       	sbrs	r24, 7
    1838:	fc cf       	rjmp	.-8      	; 0x1832 <begin+0xcba>
    183a:	80 91 44 06 	lds	r24, 0x0644
    183e:	80 61       	ori	r24, 0x10	; 16
    1840:	80 93 44 06 	sts	0x0644, r24
    1844:	80 91 44 06 	lds	r24, 0x0644
    1848:	88 60       	ori	r24, 0x08	; 8
    184a:	80 93 44 06 	sts	0x0644, r24
    184e:	80 91 44 06 	lds	r24, 0x0644
    1852:	8f 7e       	andi	r24, 0xEF	; 239
    1854:	80 93 44 06 	sts	0x0644, r24
    1858:	8f e0       	ldi	r24, 0x0F	; 15
    185a:	80 93 e3 08 	sts	0x08E3, r24
    185e:	80 91 e2 08 	lds	r24, 0x08E2
    1862:	87 ff       	sbrs	r24, 7
    1864:	fc cf       	rjmp	.-8      	; 0x185e <begin+0xce6>
    1866:	80 91 44 06 	lds	r24, 0x0644
    186a:	80 61       	ori	r24, 0x10	; 16
    186c:	80 93 44 06 	sts	0x0644, r24
    1870:	80 91 44 06 	lds	r24, 0x0644
    1874:	88 60       	ori	r24, 0x08	; 8
    1876:	80 93 44 06 	sts	0x0644, r24
    187a:	80 91 44 06 	lds	r24, 0x0644
    187e:	8f 7e       	andi	r24, 0xEF	; 239
    1880:	80 93 44 06 	sts	0x0644, r24
    1884:	8c e0       	ldi	r24, 0x0C	; 12
    1886:	80 93 e3 08 	sts	0x08E3, r24
    188a:	80 91 e2 08 	lds	r24, 0x08E2
    188e:	87 ff       	sbrs	r24, 7
    1890:	fc cf       	rjmp	.-8      	; 0x188a <begin+0xd12>
    1892:	80 91 44 06 	lds	r24, 0x0644
    1896:	80 61       	ori	r24, 0x10	; 16
    1898:	80 93 44 06 	sts	0x0644, r24
    189c:	80 91 44 06 	lds	r24, 0x0644
    18a0:	88 60       	ori	r24, 0x08	; 8
    18a2:	80 93 44 06 	sts	0x0644, r24
    18a6:	80 91 44 06 	lds	r24, 0x0644
    18aa:	8f 7e       	andi	r24, 0xEF	; 239
    18ac:	80 93 44 06 	sts	0x0644, r24
    18b0:	81 e3       	ldi	r24, 0x31	; 49
    18b2:	80 93 e3 08 	sts	0x08E3, r24
    18b6:	80 91 e2 08 	lds	r24, 0x08E2
    18ba:	87 ff       	sbrs	r24, 7
    18bc:	fc cf       	rjmp	.-8      	; 0x18b6 <begin+0xd3e>
    18be:	80 91 44 06 	lds	r24, 0x0644
    18c2:	80 61       	ori	r24, 0x10	; 16
    18c4:	80 93 44 06 	sts	0x0644, r24
    18c8:	80 91 44 06 	lds	r24, 0x0644
    18cc:	88 60       	ori	r24, 0x08	; 8
    18ce:	80 93 44 06 	sts	0x0644, r24
    18d2:	80 91 44 06 	lds	r24, 0x0644
    18d6:	8f 7e       	andi	r24, 0xEF	; 239
    18d8:	80 93 44 06 	sts	0x0644, r24
    18dc:	86 e3       	ldi	r24, 0x36	; 54
    18de:	80 93 e3 08 	sts	0x08E3, r24
    18e2:	80 91 e2 08 	lds	r24, 0x08E2
    18e6:	87 ff       	sbrs	r24, 7
    18e8:	fc cf       	rjmp	.-8      	; 0x18e2 <begin+0xd6a>
    18ea:	80 91 44 06 	lds	r24, 0x0644
    18ee:	80 61       	ori	r24, 0x10	; 16
    18f0:	80 93 44 06 	sts	0x0644, r24
    18f4:	80 91 44 06 	lds	r24, 0x0644
    18f8:	88 60       	ori	r24, 0x08	; 8
    18fa:	80 93 44 06 	sts	0x0644, r24
    18fe:	80 91 44 06 	lds	r24, 0x0644
    1902:	8f 7e       	andi	r24, 0xEF	; 239
    1904:	80 93 44 06 	sts	0x0644, r24
    1908:	8f e0       	ldi	r24, 0x0F	; 15
    190a:	80 93 e3 08 	sts	0x08E3, r24
    190e:	80 91 e2 08 	lds	r24, 0x08E2
    1912:	87 ff       	sbrs	r24, 7
    1914:	fc cf       	rjmp	.-8      	; 0x190e <begin+0xd96>
    1916:	80 91 44 06 	lds	r24, 0x0644
    191a:	80 61       	ori	r24, 0x10	; 16
    191c:	80 93 44 06 	sts	0x0644, r24
    1920:	80 91 44 06 	lds	r24, 0x0644
    1924:	87 7e       	andi	r24, 0xE7	; 231
    1926:	80 93 44 06 	sts	0x0644, r24
    192a:	81 e1       	ldi	r24, 0x11	; 17
    192c:	80 93 e3 08 	sts	0x08E3, r24
    1930:	80 91 e2 08 	lds	r24, 0x08E2
    1934:	87 ff       	sbrs	r24, 7
    1936:	fc cf       	rjmp	.-8      	; 0x1930 <begin+0xdb8>
    1938:	80 91 44 06 	lds	r24, 0x0644
    193c:	80 61       	ori	r24, 0x10	; 16
    193e:	80 93 44 06 	sts	0x0644, r24
    1942:	8f e2       	ldi	r24, 0x2F	; 47
    1944:	95 e7       	ldi	r25, 0x75	; 117
    1946:	01 97       	sbiw	r24, 0x01	; 1
    1948:	f1 f7       	brne	.-4      	; 0x1946 <begin+0xdce>
    194a:	00 c0       	rjmp	.+0      	; 0x194c <begin+0xdd4>
    194c:	00 00       	nop
    194e:	80 91 44 06 	lds	r24, 0x0644
    1952:	87 7e       	andi	r24, 0xE7	; 231
    1954:	80 93 44 06 	sts	0x0644, r24
    1958:	89 e2       	ldi	r24, 0x29	; 41
    195a:	80 93 e3 08 	sts	0x08E3, r24
    195e:	80 91 e2 08 	lds	r24, 0x08E2
    1962:	87 ff       	sbrs	r24, 7
    1964:	fc cf       	rjmp	.-8      	; 0x195e <begin+0xde6>
    1966:	80 91 44 06 	lds	r24, 0x0644
    196a:	80 61       	ori	r24, 0x10	; 16
    196c:	80 93 44 06 	sts	0x0644, r24
    1970:	08 95       	ret

00001972 <pushColor>:
    1972:	20 91 44 06 	lds	r18, 0x0644
    1976:	28 60       	ori	r18, 0x08	; 8
    1978:	20 93 44 06 	sts	0x0644, r18
    197c:	20 91 44 06 	lds	r18, 0x0644
    1980:	2f 7e       	andi	r18, 0xEF	; 239
    1982:	20 93 44 06 	sts	0x0644, r18
    1986:	90 93 e3 08 	sts	0x08E3, r25
    198a:	90 91 e2 08 	lds	r25, 0x08E2
    198e:	97 ff       	sbrs	r25, 7
    1990:	fc cf       	rjmp	.-8      	; 0x198a <pushColor+0x18>
    1992:	90 91 44 06 	lds	r25, 0x0644
    1996:	90 61       	ori	r25, 0x10	; 16
    1998:	90 93 44 06 	sts	0x0644, r25
    199c:	90 91 44 06 	lds	r25, 0x0644
    19a0:	98 60       	ori	r25, 0x08	; 8
    19a2:	90 93 44 06 	sts	0x0644, r25
    19a6:	90 91 44 06 	lds	r25, 0x0644
    19aa:	9f 7e       	andi	r25, 0xEF	; 239
    19ac:	90 93 44 06 	sts	0x0644, r25
    19b0:	80 93 e3 08 	sts	0x08E3, r24
    19b4:	80 91 e2 08 	lds	r24, 0x08E2
    19b8:	87 ff       	sbrs	r24, 7
    19ba:	fc cf       	rjmp	.-8      	; 0x19b4 <pushColor+0x42>
    19bc:	80 91 44 06 	lds	r24, 0x0644
    19c0:	80 61       	ori	r24, 0x10	; 16
    19c2:	80 93 44 06 	sts	0x0644, r24
    19c6:	08 95       	ret

000019c8 <clear>:
    19c8:	ef 92       	push	r14
    19ca:	ff 92       	push	r15
    19cc:	0f 93       	push	r16
    19ce:	1f 93       	push	r17
    19d0:	cf 93       	push	r28
    19d2:	df 93       	push	r29
    19d4:	8c 01       	movw	r16, r24
    19d6:	20 91 3b 20 	lds	r18, 0x203B
    19da:	30 91 3c 20 	lds	r19, 0x203C
    19de:	21 50       	subi	r18, 0x01	; 1
    19e0:	31 09       	sbc	r19, r1
    19e2:	40 91 3d 20 	lds	r20, 0x203D
    19e6:	50 91 3e 20 	lds	r21, 0x203E
    19ea:	41 50       	subi	r20, 0x01	; 1
    19ec:	51 09       	sbc	r21, r1
    19ee:	60 e0       	ldi	r22, 0x00	; 0
    19f0:	70 e0       	ldi	r23, 0x00	; 0
    19f2:	80 e0       	ldi	r24, 0x00	; 0
    19f4:	90 e0       	ldi	r25, 0x00	; 0
    19f6:	0e 94 e0 04 	call	0x9c0	; 0x9c0 <setAddress>
    19fa:	80 91 3d 20 	lds	r24, 0x203D
    19fe:	90 91 3e 20 	lds	r25, 0x203E
    1a02:	00 97       	sbiw	r24, 0x00	; 0
    1a04:	01 f1       	breq	.+64     	; 0x1a46 <clear+0x7e>
    1a06:	e1 2c       	mov	r14, r1
    1a08:	f1 2c       	mov	r15, r1
    1a0a:	20 91 3b 20 	lds	r18, 0x203B
    1a0e:	30 91 3c 20 	lds	r19, 0x203C
    1a12:	21 15       	cp	r18, r1
    1a14:	31 05       	cpc	r19, r1
    1a16:	89 f0       	breq	.+34     	; 0x1a3a <clear+0x72>
    1a18:	c0 e0       	ldi	r28, 0x00	; 0
    1a1a:	d0 e0       	ldi	r29, 0x00	; 0
    1a1c:	c8 01       	movw	r24, r16
    1a1e:	0e 94 b9 0c 	call	0x1972	; 0x1972 <pushColor>
    1a22:	21 96       	adiw	r28, 0x01	; 1
    1a24:	20 91 3b 20 	lds	r18, 0x203B
    1a28:	30 91 3c 20 	lds	r19, 0x203C
    1a2c:	c2 17       	cp	r28, r18
    1a2e:	d3 07       	cpc	r29, r19
    1a30:	a8 f3       	brcs	.-22     	; 0x1a1c <clear+0x54>
    1a32:	80 91 3d 20 	lds	r24, 0x203D
    1a36:	90 91 3e 20 	lds	r25, 0x203E
    1a3a:	4f ef       	ldi	r20, 0xFF	; 255
    1a3c:	e4 1a       	sub	r14, r20
    1a3e:	f4 0a       	sbc	r15, r20
    1a40:	e8 16       	cp	r14, r24
    1a42:	f9 06       	cpc	r15, r25
    1a44:	30 f3       	brcs	.-52     	; 0x1a12 <clear+0x4a>
    1a46:	df 91       	pop	r29
    1a48:	cf 91       	pop	r28
    1a4a:	1f 91       	pop	r17
    1a4c:	0f 91       	pop	r16
    1a4e:	ff 90       	pop	r15
    1a50:	ef 90       	pop	r14
    1a52:	08 95       	ret

00001a54 <drawPixel>:
    1a54:	cf 93       	push	r28
    1a56:	df 93       	push	r29
    1a58:	20 91 3d 20 	lds	r18, 0x203D
    1a5c:	30 91 3e 20 	lds	r19, 0x203E
    1a60:	82 17       	cp	r24, r18
    1a62:	93 07       	cpc	r25, r19
    1a64:	38 f4       	brcc	.+14     	; 0x1a74 <drawPixel+0x20>
    1a66:	20 91 3b 20 	lds	r18, 0x203B
    1a6a:	30 91 3c 20 	lds	r19, 0x203C
    1a6e:	62 17       	cp	r22, r18
    1a70:	73 07       	cpc	r23, r19
    1a72:	18 f0       	brcs	.+6      	; 0x1a7a <drawPixel+0x26>
    1a74:	df 91       	pop	r29
    1a76:	cf 91       	pop	r28
    1a78:	08 95       	ret
    1a7a:	ea 01       	movw	r28, r20
    1a7c:	9b 01       	movw	r18, r22
    1a7e:	2f 5f       	subi	r18, 0xFF	; 255
    1a80:	3f 4f       	sbci	r19, 0xFF	; 255
    1a82:	ac 01       	movw	r20, r24
    1a84:	4f 5f       	subi	r20, 0xFF	; 255
    1a86:	5f 4f       	sbci	r21, 0xFF	; 255
    1a88:	0e 94 e0 04 	call	0x9c0	; 0x9c0 <setAddress>
    1a8c:	ce 01       	movw	r24, r28
    1a8e:	df 91       	pop	r29
    1a90:	cf 91       	pop	r28
    1a92:	0c 94 b9 0c 	jmp	0x1972	; 0x1972 <pushColor>

00001a96 <fillrect>:
    1a96:	cf 92       	push	r12
    1a98:	df 92       	push	r13
    1a9a:	ef 92       	push	r14
    1a9c:	ff 92       	push	r15
    1a9e:	0f 93       	push	r16
    1aa0:	1f 93       	push	r17
    1aa2:	cf 93       	push	r28
    1aa4:	df 93       	push	r29
    1aa6:	6a 01       	movw	r12, r20
    1aa8:	79 01       	movw	r14, r18
    1aaa:	20 91 3d 20 	lds	r18, 0x203D
    1aae:	30 91 3e 20 	lds	r19, 0x203E
    1ab2:	82 17       	cp	r24, r18
    1ab4:	93 07       	cpc	r25, r19
    1ab6:	a8 f5       	brcc	.+106    	; 0x1b22 <fillrect+0x8c>
    1ab8:	40 91 3b 20 	lds	r20, 0x203B
    1abc:	50 91 3c 20 	lds	r21, 0x203C
    1ac0:	64 17       	cp	r22, r20
    1ac2:	75 07       	cpc	r23, r21
    1ac4:	70 f5       	brcc	.+92     	; 0x1b22 <fillrect+0x8c>
    1ac6:	f6 01       	movw	r30, r12
    1ac8:	31 97       	sbiw	r30, 0x01	; 1
    1aca:	e8 0f       	add	r30, r24
    1acc:	f9 1f       	adc	r31, r25
    1ace:	e2 17       	cp	r30, r18
    1ad0:	f3 07       	cpc	r31, r19
    1ad2:	18 f0       	brcs	.+6      	; 0x1ada <fillrect+0x44>
    1ad4:	69 01       	movw	r12, r18
    1ad6:	c8 1a       	sub	r12, r24
    1ad8:	d9 0a       	sbc	r13, r25
    1ada:	97 01       	movw	r18, r14
    1adc:	21 50       	subi	r18, 0x01	; 1
    1ade:	31 09       	sbc	r19, r1
    1ae0:	26 0f       	add	r18, r22
    1ae2:	37 1f       	adc	r19, r23
    1ae4:	24 17       	cp	r18, r20
    1ae6:	35 07       	cpc	r19, r21
    1ae8:	28 f5       	brcc	.+74     	; 0x1b34 <fillrect+0x9e>
    1aea:	9b 01       	movw	r18, r22
    1aec:	21 50       	subi	r18, 0x01	; 1
    1aee:	31 09       	sbc	r19, r1
    1af0:	2e 0d       	add	r18, r14
    1af2:	3f 1d       	adc	r19, r15
    1af4:	ac 01       	movw	r20, r24
    1af6:	41 50       	subi	r20, 0x01	; 1
    1af8:	51 09       	sbc	r21, r1
    1afa:	4c 0d       	add	r20, r12
    1afc:	5d 1d       	adc	r21, r13
    1afe:	0e 94 e0 04 	call	0x9c0	; 0x9c0 <setAddress>
    1b02:	e1 14       	cp	r14, r1
    1b04:	f1 04       	cpc	r15, r1
    1b06:	69 f0       	breq	.+26     	; 0x1b22 <fillrect+0x8c>
    1b08:	c1 14       	cp	r12, r1
    1b0a:	d1 04       	cpc	r13, r1
    1b0c:	31 f0       	breq	.+12     	; 0x1b1a <fillrect+0x84>
    1b0e:	e6 01       	movw	r28, r12
    1b10:	c8 01       	movw	r24, r16
    1b12:	0e 94 b9 0c 	call	0x1972	; 0x1972 <pushColor>
    1b16:	21 97       	sbiw	r28, 0x01	; 1
    1b18:	d9 f7       	brne	.-10     	; 0x1b10 <fillrect+0x7a>
    1b1a:	81 e0       	ldi	r24, 0x01	; 1
    1b1c:	e8 1a       	sub	r14, r24
    1b1e:	f1 08       	sbc	r15, r1
    1b20:	99 f7       	brne	.-26     	; 0x1b08 <fillrect+0x72>
    1b22:	df 91       	pop	r29
    1b24:	cf 91       	pop	r28
    1b26:	1f 91       	pop	r17
    1b28:	0f 91       	pop	r16
    1b2a:	ff 90       	pop	r15
    1b2c:	ef 90       	pop	r14
    1b2e:	df 90       	pop	r13
    1b30:	cf 90       	pop	r12
    1b32:	08 95       	ret
    1b34:	7a 01       	movw	r14, r20
    1b36:	e6 1a       	sub	r14, r22
    1b38:	f7 0a       	sbc	r15, r23
    1b3a:	d7 cf       	rjmp	.-82     	; 0x1aea <fillrect+0x54>

00001b3c <setRotation>:
	SPIC_DATA = data;	//write to data register
	//_delay_ms(5);
	while(!(SPIC_STATUS & (1<<SPI_IF_bp))){}	//wait until the flag is set making data
}
void spi_writeCommand(uint8_t command){
	SPIPORT &= ~((1<<DC)|(1<<CS));		//dc and cs both set as low to send
    1b3c:	90 91 44 06 	lds	r25, 0x0644
    1b40:	97 7e       	andi	r25, 0xE7	; 231
    1b42:	90 93 44 06 	sts	0x0644, r25
	SPIPORT |= (1<<CS);

}

void spi_send(uint8_t data){
	SPIC_DATA = data;	//write to data register
    1b46:	96 e3       	ldi	r25, 0x36	; 54
    1b48:	90 93 e3 08 	sts	0x08E3, r25
	//_delay_ms(5);
	while(!(SPIC_STATUS & (1<<SPI_IF_bp))){}	//wait until the flag is set making data
    1b4c:	90 91 e2 08 	lds	r25, 0x08E2
    1b50:	97 ff       	sbrs	r25, 7
    1b52:	fc cf       	rjmp	.-8      	; 0x1b4c <setRotation+0x10>
}
void spi_writeCommand(uint8_t command){
	SPIPORT &= ~((1<<DC)|(1<<CS));		//dc and cs both set as low to send
	//_delay_us(5);						//delay 5us
	spi_send(command);
	SPIPORT |= (1<<CS);					//cs is set high
    1b54:	90 91 44 06 	lds	r25, 0x0644
    1b58:	90 61       	ori	r25, 0x10	; 16
    1b5a:	90 93 44 06 	sts	0x0644, r25

void setRotation(uint8_t x){
	uint8_t rotation;
	spi_writeCommand(0x36);
	rotation=x;
	switch (rotation)
    1b5e:	81 30       	cpi	r24, 0x01	; 1
    1b60:	09 f4       	brne	.+2      	; 0x1b64 <setRotation+0x28>
    1b62:	5f c0       	rjmp	.+190    	; 0x1c22 <setRotation+0xe6>
    1b64:	08 f4       	brcc	.+2      	; 0x1b68 <setRotation+0x2c>
    1b66:	4b c0       	rjmp	.+150    	; 0x1bfe <setRotation+0xc2>
    1b68:	82 30       	cpi	r24, 0x02	; 2
    1b6a:	19 f0       	breq	.+6      	; 0x1b72 <setRotation+0x36>
    1b6c:	83 30       	cpi	r24, 0x03	; 3
    1b6e:	21 f1       	breq	.+72     	; 0x1bb8 <setRotation+0x7c>
    1b70:	08 95       	ret
	//_delay_us(5);						//delay 5us
	spi_send(command);
	SPIPORT |= (1<<CS);					//cs is set high
}
void spi_writeData(uint8_t data){
	SPIPORT |= (1<<DC);					//dc set high for data
    1b72:	80 91 44 06 	lds	r24, 0x0644
    1b76:	88 60       	ori	r24, 0x08	; 8
    1b78:	80 93 44 06 	sts	0x0644, r24
	//_delay_us(1);
	SPIPORT &= ~(1<<CS);				//CS set high for
    1b7c:	80 91 44 06 	lds	r24, 0x0644
    1b80:	8f 7e       	andi	r24, 0xEF	; 239
    1b82:	80 93 44 06 	sts	0x0644, r24
	SPIPORT |= (1<<CS);

}

void spi_send(uint8_t data){
	SPIC_DATA = data;	//write to data register
    1b86:	88 e8       	ldi	r24, 0x88	; 136
    1b88:	80 93 e3 08 	sts	0x08E3, r24
	//_delay_ms(5);
	while(!(SPIC_STATUS & (1<<SPI_IF_bp))){}	//wait until the flag is set making data
    1b8c:	80 91 e2 08 	lds	r24, 0x08E2
    1b90:	87 ff       	sbrs	r24, 7
    1b92:	fc cf       	rjmp	.-8      	; 0x1b8c <setRotation+0x50>
	SPIPORT |= (1<<DC);					//dc set high for data
	//_delay_us(1);
	SPIPORT &= ~(1<<CS);				//CS set high for
	spi_send(data);
	//_delay_us(5);
	SPIPORT |= (1<<CS);
    1b94:	80 91 44 06 	lds	r24, 0x0644
    1b98:	80 61       	ori	r24, 0x10	; 16
    1b9a:	80 93 44 06 	sts	0x0644, r24
		width  = 320;
		height = 240;
		break;
		case 2:
		spi_writeData(0x80|0x08);
		width  = 240;
    1b9e:	80 ef       	ldi	r24, 0xF0	; 240
    1ba0:	90 e0       	ldi	r25, 0x00	; 0
    1ba2:	80 93 3d 20 	sts	0x203D, r24
    1ba6:	90 93 3e 20 	sts	0x203E, r25
		height = 320;
    1baa:	80 e4       	ldi	r24, 0x40	; 64
    1bac:	91 e0       	ldi	r25, 0x01	; 1
    1bae:	80 93 3b 20 	sts	0x203B, r24
    1bb2:	90 93 3c 20 	sts	0x203C, r25
		break;
    1bb6:	08 95       	ret
	//_delay_us(5);						//delay 5us
	spi_send(command);
	SPIPORT |= (1<<CS);					//cs is set high
}
void spi_writeData(uint8_t data){
	SPIPORT |= (1<<DC);					//dc set high for data
    1bb8:	80 91 44 06 	lds	r24, 0x0644
    1bbc:	88 60       	ori	r24, 0x08	; 8
    1bbe:	80 93 44 06 	sts	0x0644, r24
	//_delay_us(1);
	SPIPORT &= ~(1<<CS);				//CS set high for
    1bc2:	80 91 44 06 	lds	r24, 0x0644
    1bc6:	8f 7e       	andi	r24, 0xEF	; 239
    1bc8:	80 93 44 06 	sts	0x0644, r24
	SPIPORT |= (1<<CS);

}

void spi_send(uint8_t data){
	SPIC_DATA = data;	//write to data register
    1bcc:	88 ee       	ldi	r24, 0xE8	; 232
    1bce:	80 93 e3 08 	sts	0x08E3, r24
	//_delay_ms(5);
	while(!(SPIC_STATUS & (1<<SPI_IF_bp))){}	//wait until the flag is set making data
    1bd2:	80 91 e2 08 	lds	r24, 0x08E2
    1bd6:	87 ff       	sbrs	r24, 7
    1bd8:	fc cf       	rjmp	.-8      	; 0x1bd2 <setRotation+0x96>
	SPIPORT |= (1<<DC);					//dc set high for data
	//_delay_us(1);
	SPIPORT &= ~(1<<CS);				//CS set high for
	spi_send(data);
	//_delay_us(5);
	SPIPORT |= (1<<CS);
    1bda:	80 91 44 06 	lds	r24, 0x0644
    1bde:	80 61       	ori	r24, 0x10	; 16
    1be0:	80 93 44 06 	sts	0x0644, r24
		width  = 240;
		height = 320;
		break;
		case 3:
		spi_writeData(0x40|0x80|0x20|0x08);
		width  = 320;
    1be4:	80 e4       	ldi	r24, 0x40	; 64
    1be6:	91 e0       	ldi	r25, 0x01	; 1
    1be8:	80 93 3d 20 	sts	0x203D, r24
    1bec:	90 93 3e 20 	sts	0x203E, r25
		height = 240;
    1bf0:	80 ef       	ldi	r24, 0xF0	; 240
    1bf2:	90 e0       	ldi	r25, 0x00	; 0
    1bf4:	80 93 3b 20 	sts	0x203B, r24
    1bf8:	90 93 3c 20 	sts	0x203C, r25
    1bfc:	08 95       	ret
	//_delay_us(5);						//delay 5us
	spi_send(command);
	SPIPORT |= (1<<CS);					//cs is set high
}
void spi_writeData(uint8_t data){
	SPIPORT |= (1<<DC);					//dc set high for data
    1bfe:	80 91 44 06 	lds	r24, 0x0644
    1c02:	88 60       	ori	r24, 0x08	; 8
    1c04:	80 93 44 06 	sts	0x0644, r24
	//_delay_us(1);
	SPIPORT &= ~(1<<CS);				//CS set high for
    1c08:	80 91 44 06 	lds	r24, 0x0644
    1c0c:	8f 7e       	andi	r24, 0xEF	; 239
    1c0e:	80 93 44 06 	sts	0x0644, r24
	SPIPORT |= (1<<CS);

}

void spi_send(uint8_t data){
	SPIC_DATA = data;	//write to data register
    1c12:	88 e4       	ldi	r24, 0x48	; 72
    1c14:	80 93 e3 08 	sts	0x08E3, r24
	//_delay_ms(5);
	while(!(SPIC_STATUS & (1<<SPI_IF_bp))){}	//wait until the flag is set making data
    1c18:	80 91 e2 08 	lds	r24, 0x08E2
    1c1c:	87 ff       	sbrs	r24, 7
    1c1e:	fc cf       	rjmp	.-8      	; 0x1c18 <setRotation+0xdc>
    1c20:	b9 cf       	rjmp	.-142    	; 0x1b94 <setRotation+0x58>
	//_delay_us(5);						//delay 5us
	spi_send(command);
	SPIPORT |= (1<<CS);					//cs is set high
}
void spi_writeData(uint8_t data){
	SPIPORT |= (1<<DC);					//dc set high for data
    1c22:	80 91 44 06 	lds	r24, 0x0644
    1c26:	88 60       	ori	r24, 0x08	; 8
    1c28:	80 93 44 06 	sts	0x0644, r24
	//_delay_us(1);
	SPIPORT &= ~(1<<CS);				//CS set high for
    1c2c:	80 91 44 06 	lds	r24, 0x0644
    1c30:	8f 7e       	andi	r24, 0xEF	; 239
    1c32:	80 93 44 06 	sts	0x0644, r24
	SPIPORT |= (1<<CS);

}

void spi_send(uint8_t data){
	SPIC_DATA = data;	//write to data register
    1c36:	88 e2       	ldi	r24, 0x28	; 40
    1c38:	80 93 e3 08 	sts	0x08E3, r24
	//_delay_ms(5);
	while(!(SPIC_STATUS & (1<<SPI_IF_bp))){}	//wait until the flag is set making data
    1c3c:	80 91 e2 08 	lds	r24, 0x08E2
    1c40:	87 ff       	sbrs	r24, 7
    1c42:	fc cf       	rjmp	.-8      	; 0x1c3c <setRotation+0x100>
    1c44:	ca cf       	rjmp	.-108    	; 0x1bda <setRotation+0x9e>

00001c46 <main>:
	_delay_ms(15000);
}

int main(void)
{
	begin();					//initialize spi driver
    1c46:	0e 94 bc 05 	call	0xb78	; 0xb78 <begin>
	setRotation(3);
    1c4a:	83 e0       	ldi	r24, 0x03	; 3
    1c4c:	90 e0       	ldi	r25, 0x00	; 0
    1c4e:	0e 94 9e 0d 	call	0x1b3c	; 0x1b3c <setRotation>
	clear(ILI9341_BLACK);
    1c52:	80 e0       	ldi	r24, 0x00	; 0
    1c54:	90 e0       	ldi	r25, 0x00	; 0
    1c56:	0e 94 e4 0c 	call	0x19c8	; 0x19c8 <clear>
	//fillScreen();				//random background generator
	gfx_setTextColor(ILI9341_YELLOW);
    1c5a:	80 ee       	ldi	r24, 0xE0	; 224
    1c5c:	9f ef       	ldi	r25, 0xFF	; 255
    1c5e:	0e 94 4b 04 	call	0x896	; 0x896 <gfx_setTextColor>
	gfx_setCursor(20, 20);
    1c62:	64 e1       	ldi	r22, 0x14	; 20
    1c64:	70 e0       	ldi	r23, 0x00	; 0
    1c66:	84 e1       	ldi	r24, 0x14	; 20
    1c68:	90 e0       	ldi	r25, 0x00	; 0
    1c6a:	0e 94 42 04 	call	0x884	; 0x884 <gfx_setCursor>
	gfx_setTextSize(4);
    1c6e:	84 e0       	ldi	r24, 0x04	; 4
    1c70:	0e 94 50 04 	call	0x8a0	; 0x8a0 <gfx_setTextSize>
	//gfx_setBgColor(ILI9341_WHEAT);
	gfx_print("Hello World");
    1c74:	8d e0       	ldi	r24, 0x0D	; 13
    1c76:	90 e2       	ldi	r25, 0x20	; 32
    1c78:	0e 94 99 04 	call	0x932	; 0x932 <gfx_print>
	
	gfx_setTextSize(3);
    1c7c:	83 e0       	ldi	r24, 0x03	; 3
    1c7e:	0e 94 50 04 	call	0x8a0	; 0x8a0 <gfx_setTextSize>
	gfx_setTextColor(ILI9341_YELLOW);
    1c82:	80 ee       	ldi	r24, 0xE0	; 224
    1c84:	9f ef       	ldi	r25, 0xFF	; 255
    1c86:	0e 94 4b 04 	call	0x896	; 0x896 <gfx_setTextColor>
	gfx_setCursor(20, 80);
    1c8a:	60 e5       	ldi	r22, 0x50	; 80
    1c8c:	70 e0       	ldi	r23, 0x00	; 0
    1c8e:	84 e1       	ldi	r24, 0x14	; 20
    1c90:	90 e0       	ldi	r25, 0x00	; 0
    1c92:	0e 94 42 04 	call	0x884	; 0x884 <gfx_setCursor>
	gfx_print("Fall 2016");
    1c96:	89 e1       	ldi	r24, 0x19	; 25
    1c98:	90 e2       	ldi	r25, 0x20	; 32
    1c9a:	0e 94 99 04 	call	0x932	; 0x932 <gfx_print>
	gfx_setTextColor(ILI9341_CADETBLUE);
    1c9e:	84 ef       	ldi	r24, 0xF4	; 244
    1ca0:	9c e5       	ldi	r25, 0x5C	; 92
    1ca2:	0e 94 4b 04 	call	0x896	; 0x896 <gfx_setTextColor>
	gfx_setCursor(20,120);
    1ca6:	68 e7       	ldi	r22, 0x78	; 120
    1ca8:	70 e0       	ldi	r23, 0x00	; 0
    1caa:	84 e1       	ldi	r24, 0x14	; 20
    1cac:	90 e0       	ldi	r25, 0x00	; 0
    1cae:	0e 94 42 04 	call	0x884	; 0x884 <gfx_setCursor>
	gfx_print("ESE 323");
    1cb2:	85 e0       	ldi	r24, 0x05	; 5
    1cb4:	90 e2       	ldi	r25, 0x20	; 32
    1cb6:	0e 94 99 04 	call	0x932	; 0x932 <gfx_print>
	int col = ILI9341_GREEN;
    1cba:	e1 2c       	mov	r14, r1
    1cbc:	44 e0       	ldi	r20, 0x04	; 4
    1cbe:	f4 2e       	mov	r15, r20
	int w =0;
    1cc0:	a1 2c       	mov	r10, r1
    1cc2:	b1 2c       	mov	r11, r1
				colors= ILI9341_BLUE;
				else
				colors= ILI9341_WHITE;
				drawPixel(c, buf[c-1],colors);
			}
			y= 119 +(sin(((i*1.1)*3.14)/180)*(90-(i/100)));
    1cc4:	5c e9       	ldi	r21, 0x9C	; 156
    1cc6:	c5 2e       	mov	r12, r21
    1cc8:	dd 24       	eor	r13, r13
    1cca:	da 94       	dec	r13
			w=0;
		}
		int colors = 0;
		
		int c=1, y=0, z=0;
		for(int i=1; i<(318*20); i++){
    1ccc:	c1 e0       	ldi	r28, 0x01	; 1
    1cce:	d0 e0       	ldi	r29, 0x00	; 0
		if(w==255){
			w=0;
		}
		int colors = 0;
		
		int c=1, y=0, z=0;
    1cd0:	01 e0       	ldi	r16, 0x01	; 1
    1cd2:	10 e0       	ldi	r17, 0x00	; 0
    1cd4:	5c c0       	rjmp	.+184    	; 0x1d8e <main+0x148>
		for(int i=1; i<(318*20); i++){
			c++;
			if(c==319)
			c=1;
			if(i>319){
    1cd6:	c0 34       	cpi	r28, 0x40	; 64
    1cd8:	81 e0       	ldi	r24, 0x01	; 1
    1cda:	d8 07       	cpc	r29, r24
    1cdc:	0c f4       	brge	.+2      	; 0x1ce0 <main+0x9a>
    1cde:	74 c0       	rjmp	.+232    	; 0x1dc8 <main+0x182>
				if((c==159)||(buf[c-1]==119))
    1ce0:	2f 39       	cpi	r18, 0x9F	; 159
    1ce2:	31 05       	cpc	r19, r1
    1ce4:	09 f4       	brne	.+2      	; 0x1ce8 <main+0xa2>
    1ce6:	64 c0       	rjmp	.+200    	; 0x1db0 <main+0x16a>
    1ce8:	c8 01       	movw	r24, r16
    1cea:	89 01       	movw	r16, r18
    1cec:	88 0f       	add	r24, r24
    1cee:	99 1f       	adc	r25, r25
    1cf0:	fc 01       	movw	r30, r24
    1cf2:	e1 5c       	subi	r30, 0xC1	; 193
    1cf4:	ff 4d       	sbci	r31, 0xDF	; 223
    1cf6:	60 81       	ld	r22, Z
    1cf8:	71 81       	ldd	r23, Z+1	; 0x01
    1cfa:	67 37       	cpi	r22, 0x77	; 119
    1cfc:	71 05       	cpc	r23, r1
    1cfe:	09 f4       	brne	.+2      	; 0x1d02 <main+0xbc>
    1d00:	60 c0       	rjmp	.+192    	; 0x1dc2 <main+0x17c>
				colors= ILI9341_BLUE;
				else
				colors= ILI9341_WHITE;
    1d02:	4f ef       	ldi	r20, 0xFF	; 255
    1d04:	5f ef       	ldi	r21, 0xFF	; 255
				drawPixel(c, buf[c-1],colors);
    1d06:	c8 01       	movw	r24, r16
    1d08:	0e 94 2a 0d 	call	0x1a54	; 0x1a54 <drawPixel>
			}
			y= 119 +(sin(((i*1.1)*3.14)/180)*(90-(i/100)));
    1d0c:	be 01       	movw	r22, r28
    1d0e:	0d 2e       	mov	r0, r29
    1d10:	00 0c       	add	r0, r0
    1d12:	88 0b       	sbc	r24, r24
    1d14:	99 0b       	sbc	r25, r25
    1d16:	0e 94 1b 10 	call	0x2036	; 0x2036 <__floatsisf>
    1d1a:	2d ec       	ldi	r18, 0xCD	; 205
    1d1c:	3c ec       	ldi	r19, 0xCC	; 204
    1d1e:	4c e8       	ldi	r20, 0x8C	; 140
    1d20:	5f e3       	ldi	r21, 0x3F	; 63
    1d22:	0e 94 a7 10 	call	0x214e	; 0x214e <__mulsf3>
    1d26:	23 ec       	ldi	r18, 0xC3	; 195
    1d28:	35 ef       	ldi	r19, 0xF5	; 245
    1d2a:	48 e4       	ldi	r20, 0x48	; 72
    1d2c:	50 e4       	ldi	r21, 0x40	; 64
    1d2e:	0e 94 a7 10 	call	0x214e	; 0x214e <__mulsf3>
    1d32:	20 e0       	ldi	r18, 0x00	; 0
    1d34:	30 e0       	ldi	r19, 0x00	; 0
    1d36:	44 e3       	ldi	r20, 0x34	; 52
    1d38:	53 e4       	ldi	r21, 0x43	; 67
    1d3a:	0e 94 71 0f 	call	0x1ee2	; 0x1ee2 <__divsf3>
    1d3e:	0e 94 14 11 	call	0x2228	; 0x2228 <sin>
    1d42:	2b 01       	movw	r4, r22
    1d44:	3c 01       	movw	r6, r24
    1d46:	ce 01       	movw	r24, r28
    1d48:	b6 01       	movw	r22, r12
    1d4a:	0e 94 20 15 	call	0x2a40	; 0x2a40 <__divmodhi4>
    1d4e:	66 5a       	subi	r22, 0xA6	; 166
    1d50:	7f 4f       	sbci	r23, 0xFF	; 255
    1d52:	07 2e       	mov	r0, r23
    1d54:	00 0c       	add	r0, r0
    1d56:	88 0b       	sbc	r24, r24
    1d58:	99 0b       	sbc	r25, r25
    1d5a:	0e 94 1b 10 	call	0x2036	; 0x2036 <__floatsisf>
    1d5e:	9b 01       	movw	r18, r22
    1d60:	ac 01       	movw	r20, r24
    1d62:	c3 01       	movw	r24, r6
    1d64:	b2 01       	movw	r22, r4
    1d66:	0e 94 a7 10 	call	0x214e	; 0x214e <__mulsf3>
    1d6a:	20 e0       	ldi	r18, 0x00	; 0
    1d6c:	30 e0       	ldi	r19, 0x00	; 0
    1d6e:	4e ee       	ldi	r20, 0xEE	; 238
    1d70:	52 e4       	ldi	r21, 0x42	; 66
    1d72:	0e 94 05 0f 	call	0x1e0a	; 0x1e0a <__addsf3>
    1d76:	0e 94 e3 0f 	call	0x1fc6	; 0x1fc6 <__fixsfsi>
    1d7a:	3b 01       	movw	r6, r22
			drawPixel(c,y, col);	
    1d7c:	a7 01       	movw	r20, r14
    1d7e:	c8 01       	movw	r24, r16
    1d80:	0e 94 2a 0d 	call	0x1a54	; 0x1a54 <drawPixel>
			w=0;
		}
		int colors = 0;
		
		int c=1, y=0, z=0;
		for(int i=1; i<(318*20); i++){
    1d84:	21 96       	adiw	r28, 0x01	; 1
    1d86:	c8 3d       	cpi	r28, 0xD8	; 216
    1d88:	88 e1       	ldi	r24, 0x18	; 24
    1d8a:	d8 07       	cpc	r29, r24
    1d8c:	11 f1       	breq	.+68     	; 0x1dd2 <main+0x18c>
			c++;
    1d8e:	98 01       	movw	r18, r16
    1d90:	2f 5f       	subi	r18, 0xFF	; 255
    1d92:	3f 4f       	sbci	r19, 0xFF	; 255
			if(c==319)
    1d94:	2f 33       	cpi	r18, 0x3F	; 63
    1d96:	81 e0       	ldi	r24, 0x01	; 1
    1d98:	38 07       	cpc	r19, r24
    1d9a:	09 f0       	breq	.+2      	; 0x1d9e <main+0x158>
    1d9c:	9c cf       	rjmp	.-200    	; 0x1cd6 <main+0x90>
			c=1;
			if(i>319){
    1d9e:	c0 34       	cpi	r28, 0x40	; 64
    1da0:	81 e0       	ldi	r24, 0x01	; 1
    1da2:	d8 07       	cpc	r29, r24
    1da4:	9c f0       	brlt	.+38     	; 0x1dcc <main+0x186>
    1da6:	80 e0       	ldi	r24, 0x00	; 0
    1da8:	90 e0       	ldi	r25, 0x00	; 0
		
		int c=1, y=0, z=0;
		for(int i=1; i<(318*20); i++){
			c++;
			if(c==319)
			c=1;
    1daa:	01 e0       	ldi	r16, 0x01	; 1
    1dac:	10 e0       	ldi	r17, 0x00	; 0
    1dae:	9e cf       	rjmp	.-196    	; 0x1cec <main+0xa6>
    1db0:	60 91 7b 21 	lds	r22, 0x217B
    1db4:	70 91 7c 21 	lds	r23, 0x217C
			if(i>319){
				if((c==159)||(buf[c-1]==119))
    1db8:	0f e9       	ldi	r16, 0x9F	; 159
    1dba:	10 e0       	ldi	r17, 0x00	; 0
				colors= ILI9341_BLUE;
    1dbc:	4f e1       	ldi	r20, 0x1F	; 31
    1dbe:	50 e0       	ldi	r21, 0x00	; 0
    1dc0:	a2 cf       	rjmp	.-188    	; 0x1d06 <main+0xc0>
    1dc2:	4f e1       	ldi	r20, 0x1F	; 31
    1dc4:	50 e0       	ldi	r21, 0x00	; 0
    1dc6:	9f cf       	rjmp	.-194    	; 0x1d06 <main+0xc0>
    1dc8:	89 01       	movw	r16, r18
    1dca:	a0 cf       	rjmp	.-192    	; 0x1d0c <main+0xc6>
		
		int c=1, y=0, z=0;
		for(int i=1; i<(318*20); i++){
			c++;
			if(c==319)
			c=1;
    1dcc:	01 e0       	ldi	r16, 0x01	; 1
    1dce:	10 e0       	ldi	r17, 0x00	; 0
    1dd0:	9d cf       	rjmp	.-198    	; 0x1d0c <main+0xc6>
				drawPixel(c, buf[c-1],colors);
			}
			y= 119 +(sin(((i*1.1)*3.14)/180)*(90-(i/100)));
			drawPixel(c,y, col);	
		}
		if(w%2==1){
    1dd2:	a0 fc       	sbrc	r10, 0
    1dd4:	15 c0       	rjmp	.+42     	; 0x1e00 <main+0x1ba>
		 col = ILI9341_RED;
		}
		else{
		 col = ILI9341_GREEN;
    1dd6:	e1 2c       	mov	r14, r1
    1dd8:	94 e0       	ldi	r25, 0x04	; 4
    1dda:	f9 2e       	mov	r15, r25
		}
		w++;
    1ddc:	8f ef       	ldi	r24, 0xFF	; 255
    1dde:	a8 1a       	sub	r10, r24
    1de0:	b8 0a       	sbc	r11, r24
		buf[c-1]=y;
    1de2:	00 0f       	add	r16, r16
    1de4:	11 1f       	adc	r17, r17
    1de6:	f8 01       	movw	r30, r16
    1de8:	e3 5c       	subi	r30, 0xC3	; 195
    1dea:	ff 4d       	sbci	r31, 0xDF	; 223
    1dec:	60 82       	st	Z, r6
    1dee:	71 82       	std	Z+1, r7	; 0x01
	gfx_print("ESE 323");
	int col = ILI9341_GREEN;
	int w =0;
	while(1)
	{
		if(w==255){
    1df0:	8f ef       	ldi	r24, 0xFF	; 255
    1df2:	a8 16       	cp	r10, r24
    1df4:	b1 04       	cpc	r11, r1
    1df6:	09 f0       	breq	.+2      	; 0x1dfa <main+0x1b4>
    1df8:	69 cf       	rjmp	.-302    	; 0x1ccc <main+0x86>
			w=0;
    1dfa:	a1 2c       	mov	r10, r1
    1dfc:	b1 2c       	mov	r11, r1
    1dfe:	66 cf       	rjmp	.-308    	; 0x1ccc <main+0x86>
			}
			y= 119 +(sin(((i*1.1)*3.14)/180)*(90-(i/100)));
			drawPixel(c,y, col);	
		}
		if(w%2==1){
		 col = ILI9341_RED;
    1e00:	e1 2c       	mov	r14, r1
    1e02:	28 ef       	ldi	r18, 0xF8	; 248
    1e04:	f2 2e       	mov	r15, r18
    1e06:	ea cf       	rjmp	.-44     	; 0x1ddc <main+0x196>

00001e08 <__subsf3>:
    1e08:	50 58       	subi	r21, 0x80	; 128

00001e0a <__addsf3>:
    1e0a:	bb 27       	eor	r27, r27
    1e0c:	aa 27       	eor	r26, r26
    1e0e:	0e 94 1c 0f 	call	0x1e38	; 0x1e38 <__addsf3x>
    1e12:	0c 94 6d 10 	jmp	0x20da	; 0x20da <__fp_round>
    1e16:	0e 94 5f 10 	call	0x20be	; 0x20be <__fp_pscA>
    1e1a:	38 f0       	brcs	.+14     	; 0x1e2a <__addsf3+0x20>
    1e1c:	0e 94 66 10 	call	0x20cc	; 0x20cc <__fp_pscB>
    1e20:	20 f0       	brcs	.+8      	; 0x1e2a <__addsf3+0x20>
    1e22:	39 f4       	brne	.+14     	; 0x1e32 <__addsf3+0x28>
    1e24:	9f 3f       	cpi	r25, 0xFF	; 255
    1e26:	19 f4       	brne	.+6      	; 0x1e2e <__addsf3+0x24>
    1e28:	26 f4       	brtc	.+8      	; 0x1e32 <__addsf3+0x28>
    1e2a:	0c 94 5c 10 	jmp	0x20b8	; 0x20b8 <__fp_nan>
    1e2e:	0e f4       	brtc	.+2      	; 0x1e32 <__addsf3+0x28>
    1e30:	e0 95       	com	r30
    1e32:	e7 fb       	bst	r30, 7
    1e34:	0c 94 56 10 	jmp	0x20ac	; 0x20ac <__fp_inf>

00001e38 <__addsf3x>:
    1e38:	e9 2f       	mov	r30, r25
    1e3a:	0e 94 7e 10 	call	0x20fc	; 0x20fc <__fp_split3>
    1e3e:	58 f3       	brcs	.-42     	; 0x1e16 <__addsf3+0xc>
    1e40:	ba 17       	cp	r27, r26
    1e42:	62 07       	cpc	r22, r18
    1e44:	73 07       	cpc	r23, r19
    1e46:	84 07       	cpc	r24, r20
    1e48:	95 07       	cpc	r25, r21
    1e4a:	20 f0       	brcs	.+8      	; 0x1e54 <__addsf3x+0x1c>
    1e4c:	79 f4       	brne	.+30     	; 0x1e6c <__addsf3x+0x34>
    1e4e:	a6 f5       	brtc	.+104    	; 0x1eb8 <__addsf3x+0x80>
    1e50:	0c 94 a0 10 	jmp	0x2140	; 0x2140 <__fp_zero>
    1e54:	0e f4       	brtc	.+2      	; 0x1e58 <__addsf3x+0x20>
    1e56:	e0 95       	com	r30
    1e58:	0b 2e       	mov	r0, r27
    1e5a:	ba 2f       	mov	r27, r26
    1e5c:	a0 2d       	mov	r26, r0
    1e5e:	0b 01       	movw	r0, r22
    1e60:	b9 01       	movw	r22, r18
    1e62:	90 01       	movw	r18, r0
    1e64:	0c 01       	movw	r0, r24
    1e66:	ca 01       	movw	r24, r20
    1e68:	a0 01       	movw	r20, r0
    1e6a:	11 24       	eor	r1, r1
    1e6c:	ff 27       	eor	r31, r31
    1e6e:	59 1b       	sub	r21, r25
    1e70:	99 f0       	breq	.+38     	; 0x1e98 <__addsf3x+0x60>
    1e72:	59 3f       	cpi	r21, 0xF9	; 249
    1e74:	50 f4       	brcc	.+20     	; 0x1e8a <__addsf3x+0x52>
    1e76:	50 3e       	cpi	r21, 0xE0	; 224
    1e78:	68 f1       	brcs	.+90     	; 0x1ed4 <__addsf3x+0x9c>
    1e7a:	1a 16       	cp	r1, r26
    1e7c:	f0 40       	sbci	r31, 0x00	; 0
    1e7e:	a2 2f       	mov	r26, r18
    1e80:	23 2f       	mov	r18, r19
    1e82:	34 2f       	mov	r19, r20
    1e84:	44 27       	eor	r20, r20
    1e86:	58 5f       	subi	r21, 0xF8	; 248
    1e88:	f3 cf       	rjmp	.-26     	; 0x1e70 <__addsf3x+0x38>
    1e8a:	46 95       	lsr	r20
    1e8c:	37 95       	ror	r19
    1e8e:	27 95       	ror	r18
    1e90:	a7 95       	ror	r26
    1e92:	f0 40       	sbci	r31, 0x00	; 0
    1e94:	53 95       	inc	r21
    1e96:	c9 f7       	brne	.-14     	; 0x1e8a <__addsf3x+0x52>
    1e98:	7e f4       	brtc	.+30     	; 0x1eb8 <__addsf3x+0x80>
    1e9a:	1f 16       	cp	r1, r31
    1e9c:	ba 0b       	sbc	r27, r26
    1e9e:	62 0b       	sbc	r22, r18
    1ea0:	73 0b       	sbc	r23, r19
    1ea2:	84 0b       	sbc	r24, r20
    1ea4:	ba f0       	brmi	.+46     	; 0x1ed4 <__addsf3x+0x9c>
    1ea6:	91 50       	subi	r25, 0x01	; 1
    1ea8:	a1 f0       	breq	.+40     	; 0x1ed2 <__addsf3x+0x9a>
    1eaa:	ff 0f       	add	r31, r31
    1eac:	bb 1f       	adc	r27, r27
    1eae:	66 1f       	adc	r22, r22
    1eb0:	77 1f       	adc	r23, r23
    1eb2:	88 1f       	adc	r24, r24
    1eb4:	c2 f7       	brpl	.-16     	; 0x1ea6 <__addsf3x+0x6e>
    1eb6:	0e c0       	rjmp	.+28     	; 0x1ed4 <__addsf3x+0x9c>
    1eb8:	ba 0f       	add	r27, r26
    1eba:	62 1f       	adc	r22, r18
    1ebc:	73 1f       	adc	r23, r19
    1ebe:	84 1f       	adc	r24, r20
    1ec0:	48 f4       	brcc	.+18     	; 0x1ed4 <__addsf3x+0x9c>
    1ec2:	87 95       	ror	r24
    1ec4:	77 95       	ror	r23
    1ec6:	67 95       	ror	r22
    1ec8:	b7 95       	ror	r27
    1eca:	f7 95       	ror	r31
    1ecc:	9e 3f       	cpi	r25, 0xFE	; 254
    1ece:	08 f0       	brcs	.+2      	; 0x1ed2 <__addsf3x+0x9a>
    1ed0:	b0 cf       	rjmp	.-160    	; 0x1e32 <__addsf3+0x28>
    1ed2:	93 95       	inc	r25
    1ed4:	88 0f       	add	r24, r24
    1ed6:	08 f0       	brcs	.+2      	; 0x1eda <__addsf3x+0xa2>
    1ed8:	99 27       	eor	r25, r25
    1eda:	ee 0f       	add	r30, r30
    1edc:	97 95       	ror	r25
    1ede:	87 95       	ror	r24
    1ee0:	08 95       	ret

00001ee2 <__divsf3>:
    1ee2:	0e 94 85 0f 	call	0x1f0a	; 0x1f0a <__divsf3x>
    1ee6:	0c 94 6d 10 	jmp	0x20da	; 0x20da <__fp_round>
    1eea:	0e 94 66 10 	call	0x20cc	; 0x20cc <__fp_pscB>
    1eee:	58 f0       	brcs	.+22     	; 0x1f06 <__divsf3+0x24>
    1ef0:	0e 94 5f 10 	call	0x20be	; 0x20be <__fp_pscA>
    1ef4:	40 f0       	brcs	.+16     	; 0x1f06 <__divsf3+0x24>
    1ef6:	29 f4       	brne	.+10     	; 0x1f02 <__divsf3+0x20>
    1ef8:	5f 3f       	cpi	r21, 0xFF	; 255
    1efa:	29 f0       	breq	.+10     	; 0x1f06 <__divsf3+0x24>
    1efc:	0c 94 56 10 	jmp	0x20ac	; 0x20ac <__fp_inf>
    1f00:	51 11       	cpse	r21, r1
    1f02:	0c 94 a1 10 	jmp	0x2142	; 0x2142 <__fp_szero>
    1f06:	0c 94 5c 10 	jmp	0x20b8	; 0x20b8 <__fp_nan>

00001f0a <__divsf3x>:
    1f0a:	0e 94 7e 10 	call	0x20fc	; 0x20fc <__fp_split3>
    1f0e:	68 f3       	brcs	.-38     	; 0x1eea <__divsf3+0x8>

00001f10 <__divsf3_pse>:
    1f10:	99 23       	and	r25, r25
    1f12:	b1 f3       	breq	.-20     	; 0x1f00 <__divsf3+0x1e>
    1f14:	55 23       	and	r21, r21
    1f16:	91 f3       	breq	.-28     	; 0x1efc <__divsf3+0x1a>
    1f18:	95 1b       	sub	r25, r21
    1f1a:	55 0b       	sbc	r21, r21
    1f1c:	bb 27       	eor	r27, r27
    1f1e:	aa 27       	eor	r26, r26
    1f20:	62 17       	cp	r22, r18
    1f22:	73 07       	cpc	r23, r19
    1f24:	84 07       	cpc	r24, r20
    1f26:	38 f0       	brcs	.+14     	; 0x1f36 <__divsf3_pse+0x26>
    1f28:	9f 5f       	subi	r25, 0xFF	; 255
    1f2a:	5f 4f       	sbci	r21, 0xFF	; 255
    1f2c:	22 0f       	add	r18, r18
    1f2e:	33 1f       	adc	r19, r19
    1f30:	44 1f       	adc	r20, r20
    1f32:	aa 1f       	adc	r26, r26
    1f34:	a9 f3       	breq	.-22     	; 0x1f20 <__divsf3_pse+0x10>
    1f36:	35 d0       	rcall	.+106    	; 0x1fa2 <__divsf3_pse+0x92>
    1f38:	0e 2e       	mov	r0, r30
    1f3a:	3a f0       	brmi	.+14     	; 0x1f4a <__divsf3_pse+0x3a>
    1f3c:	e0 e8       	ldi	r30, 0x80	; 128
    1f3e:	32 d0       	rcall	.+100    	; 0x1fa4 <__divsf3_pse+0x94>
    1f40:	91 50       	subi	r25, 0x01	; 1
    1f42:	50 40       	sbci	r21, 0x00	; 0
    1f44:	e6 95       	lsr	r30
    1f46:	00 1c       	adc	r0, r0
    1f48:	ca f7       	brpl	.-14     	; 0x1f3c <__divsf3_pse+0x2c>
    1f4a:	2b d0       	rcall	.+86     	; 0x1fa2 <__divsf3_pse+0x92>
    1f4c:	fe 2f       	mov	r31, r30
    1f4e:	29 d0       	rcall	.+82     	; 0x1fa2 <__divsf3_pse+0x92>
    1f50:	66 0f       	add	r22, r22
    1f52:	77 1f       	adc	r23, r23
    1f54:	88 1f       	adc	r24, r24
    1f56:	bb 1f       	adc	r27, r27
    1f58:	26 17       	cp	r18, r22
    1f5a:	37 07       	cpc	r19, r23
    1f5c:	48 07       	cpc	r20, r24
    1f5e:	ab 07       	cpc	r26, r27
    1f60:	b0 e8       	ldi	r27, 0x80	; 128
    1f62:	09 f0       	breq	.+2      	; 0x1f66 <__divsf3_pse+0x56>
    1f64:	bb 0b       	sbc	r27, r27
    1f66:	80 2d       	mov	r24, r0
    1f68:	bf 01       	movw	r22, r30
    1f6a:	ff 27       	eor	r31, r31
    1f6c:	93 58       	subi	r25, 0x83	; 131
    1f6e:	5f 4f       	sbci	r21, 0xFF	; 255
    1f70:	3a f0       	brmi	.+14     	; 0x1f80 <__divsf3_pse+0x70>
    1f72:	9e 3f       	cpi	r25, 0xFE	; 254
    1f74:	51 05       	cpc	r21, r1
    1f76:	78 f0       	brcs	.+30     	; 0x1f96 <__divsf3_pse+0x86>
    1f78:	0c 94 56 10 	jmp	0x20ac	; 0x20ac <__fp_inf>
    1f7c:	0c 94 a1 10 	jmp	0x2142	; 0x2142 <__fp_szero>
    1f80:	5f 3f       	cpi	r21, 0xFF	; 255
    1f82:	e4 f3       	brlt	.-8      	; 0x1f7c <__divsf3_pse+0x6c>
    1f84:	98 3e       	cpi	r25, 0xE8	; 232
    1f86:	d4 f3       	brlt	.-12     	; 0x1f7c <__divsf3_pse+0x6c>
    1f88:	86 95       	lsr	r24
    1f8a:	77 95       	ror	r23
    1f8c:	67 95       	ror	r22
    1f8e:	b7 95       	ror	r27
    1f90:	f7 95       	ror	r31
    1f92:	9f 5f       	subi	r25, 0xFF	; 255
    1f94:	c9 f7       	brne	.-14     	; 0x1f88 <__divsf3_pse+0x78>
    1f96:	88 0f       	add	r24, r24
    1f98:	91 1d       	adc	r25, r1
    1f9a:	96 95       	lsr	r25
    1f9c:	87 95       	ror	r24
    1f9e:	97 f9       	bld	r25, 7
    1fa0:	08 95       	ret
    1fa2:	e1 e0       	ldi	r30, 0x01	; 1
    1fa4:	66 0f       	add	r22, r22
    1fa6:	77 1f       	adc	r23, r23
    1fa8:	88 1f       	adc	r24, r24
    1faa:	bb 1f       	adc	r27, r27
    1fac:	62 17       	cp	r22, r18
    1fae:	73 07       	cpc	r23, r19
    1fb0:	84 07       	cpc	r24, r20
    1fb2:	ba 07       	cpc	r27, r26
    1fb4:	20 f0       	brcs	.+8      	; 0x1fbe <__divsf3_pse+0xae>
    1fb6:	62 1b       	sub	r22, r18
    1fb8:	73 0b       	sbc	r23, r19
    1fba:	84 0b       	sbc	r24, r20
    1fbc:	ba 0b       	sbc	r27, r26
    1fbe:	ee 1f       	adc	r30, r30
    1fc0:	88 f7       	brcc	.-30     	; 0x1fa4 <__divsf3_pse+0x94>
    1fc2:	e0 95       	com	r30
    1fc4:	08 95       	ret

00001fc6 <__fixsfsi>:
    1fc6:	0e 94 ea 0f 	call	0x1fd4	; 0x1fd4 <__fixunssfsi>
    1fca:	68 94       	set
    1fcc:	b1 11       	cpse	r27, r1
    1fce:	0c 94 a1 10 	jmp	0x2142	; 0x2142 <__fp_szero>
    1fd2:	08 95       	ret

00001fd4 <__fixunssfsi>:
    1fd4:	0e 94 86 10 	call	0x210c	; 0x210c <__fp_splitA>
    1fd8:	88 f0       	brcs	.+34     	; 0x1ffc <__fixunssfsi+0x28>
    1fda:	9f 57       	subi	r25, 0x7F	; 127
    1fdc:	98 f0       	brcs	.+38     	; 0x2004 <__fixunssfsi+0x30>
    1fde:	b9 2f       	mov	r27, r25
    1fe0:	99 27       	eor	r25, r25
    1fe2:	b7 51       	subi	r27, 0x17	; 23
    1fe4:	b0 f0       	brcs	.+44     	; 0x2012 <__fixunssfsi+0x3e>
    1fe6:	e1 f0       	breq	.+56     	; 0x2020 <__fixunssfsi+0x4c>
    1fe8:	66 0f       	add	r22, r22
    1fea:	77 1f       	adc	r23, r23
    1fec:	88 1f       	adc	r24, r24
    1fee:	99 1f       	adc	r25, r25
    1ff0:	1a f0       	brmi	.+6      	; 0x1ff8 <__fixunssfsi+0x24>
    1ff2:	ba 95       	dec	r27
    1ff4:	c9 f7       	brne	.-14     	; 0x1fe8 <__fixunssfsi+0x14>
    1ff6:	14 c0       	rjmp	.+40     	; 0x2020 <__fixunssfsi+0x4c>
    1ff8:	b1 30       	cpi	r27, 0x01	; 1
    1ffa:	91 f0       	breq	.+36     	; 0x2020 <__fixunssfsi+0x4c>
    1ffc:	0e 94 a0 10 	call	0x2140	; 0x2140 <__fp_zero>
    2000:	b1 e0       	ldi	r27, 0x01	; 1
    2002:	08 95       	ret
    2004:	0c 94 a0 10 	jmp	0x2140	; 0x2140 <__fp_zero>
    2008:	67 2f       	mov	r22, r23
    200a:	78 2f       	mov	r23, r24
    200c:	88 27       	eor	r24, r24
    200e:	b8 5f       	subi	r27, 0xF8	; 248
    2010:	39 f0       	breq	.+14     	; 0x2020 <__fixunssfsi+0x4c>
    2012:	b9 3f       	cpi	r27, 0xF9	; 249
    2014:	cc f3       	brlt	.-14     	; 0x2008 <__fixunssfsi+0x34>
    2016:	86 95       	lsr	r24
    2018:	77 95       	ror	r23
    201a:	67 95       	ror	r22
    201c:	b3 95       	inc	r27
    201e:	d9 f7       	brne	.-10     	; 0x2016 <__fixunssfsi+0x42>
    2020:	3e f4       	brtc	.+14     	; 0x2030 <__fixunssfsi+0x5c>
    2022:	90 95       	com	r25
    2024:	80 95       	com	r24
    2026:	70 95       	com	r23
    2028:	61 95       	neg	r22
    202a:	7f 4f       	sbci	r23, 0xFF	; 255
    202c:	8f 4f       	sbci	r24, 0xFF	; 255
    202e:	9f 4f       	sbci	r25, 0xFF	; 255
    2030:	08 95       	ret

00002032 <__floatunsisf>:
    2032:	e8 94       	clt
    2034:	09 c0       	rjmp	.+18     	; 0x2048 <__floatsisf+0x12>

00002036 <__floatsisf>:
    2036:	97 fb       	bst	r25, 7
    2038:	3e f4       	brtc	.+14     	; 0x2048 <__floatsisf+0x12>
    203a:	90 95       	com	r25
    203c:	80 95       	com	r24
    203e:	70 95       	com	r23
    2040:	61 95       	neg	r22
    2042:	7f 4f       	sbci	r23, 0xFF	; 255
    2044:	8f 4f       	sbci	r24, 0xFF	; 255
    2046:	9f 4f       	sbci	r25, 0xFF	; 255
    2048:	99 23       	and	r25, r25
    204a:	a9 f0       	breq	.+42     	; 0x2076 <__floatsisf+0x40>
    204c:	f9 2f       	mov	r31, r25
    204e:	96 e9       	ldi	r25, 0x96	; 150
    2050:	bb 27       	eor	r27, r27
    2052:	93 95       	inc	r25
    2054:	f6 95       	lsr	r31
    2056:	87 95       	ror	r24
    2058:	77 95       	ror	r23
    205a:	67 95       	ror	r22
    205c:	b7 95       	ror	r27
    205e:	f1 11       	cpse	r31, r1
    2060:	f8 cf       	rjmp	.-16     	; 0x2052 <__floatsisf+0x1c>
    2062:	fa f4       	brpl	.+62     	; 0x20a2 <__floatsisf+0x6c>
    2064:	bb 0f       	add	r27, r27
    2066:	11 f4       	brne	.+4      	; 0x206c <__floatsisf+0x36>
    2068:	60 ff       	sbrs	r22, 0
    206a:	1b c0       	rjmp	.+54     	; 0x20a2 <__floatsisf+0x6c>
    206c:	6f 5f       	subi	r22, 0xFF	; 255
    206e:	7f 4f       	sbci	r23, 0xFF	; 255
    2070:	8f 4f       	sbci	r24, 0xFF	; 255
    2072:	9f 4f       	sbci	r25, 0xFF	; 255
    2074:	16 c0       	rjmp	.+44     	; 0x20a2 <__floatsisf+0x6c>
    2076:	88 23       	and	r24, r24
    2078:	11 f0       	breq	.+4      	; 0x207e <__floatsisf+0x48>
    207a:	96 e9       	ldi	r25, 0x96	; 150
    207c:	11 c0       	rjmp	.+34     	; 0x20a0 <__floatsisf+0x6a>
    207e:	77 23       	and	r23, r23
    2080:	21 f0       	breq	.+8      	; 0x208a <__floatsisf+0x54>
    2082:	9e e8       	ldi	r25, 0x8E	; 142
    2084:	87 2f       	mov	r24, r23
    2086:	76 2f       	mov	r23, r22
    2088:	05 c0       	rjmp	.+10     	; 0x2094 <__floatsisf+0x5e>
    208a:	66 23       	and	r22, r22
    208c:	71 f0       	breq	.+28     	; 0x20aa <__floatsisf+0x74>
    208e:	96 e8       	ldi	r25, 0x86	; 134
    2090:	86 2f       	mov	r24, r22
    2092:	70 e0       	ldi	r23, 0x00	; 0
    2094:	60 e0       	ldi	r22, 0x00	; 0
    2096:	2a f0       	brmi	.+10     	; 0x20a2 <__floatsisf+0x6c>
    2098:	9a 95       	dec	r25
    209a:	66 0f       	add	r22, r22
    209c:	77 1f       	adc	r23, r23
    209e:	88 1f       	adc	r24, r24
    20a0:	da f7       	brpl	.-10     	; 0x2098 <__floatsisf+0x62>
    20a2:	88 0f       	add	r24, r24
    20a4:	96 95       	lsr	r25
    20a6:	87 95       	ror	r24
    20a8:	97 f9       	bld	r25, 7
    20aa:	08 95       	ret

000020ac <__fp_inf>:
    20ac:	97 f9       	bld	r25, 7
    20ae:	9f 67       	ori	r25, 0x7F	; 127
    20b0:	80 e8       	ldi	r24, 0x80	; 128
    20b2:	70 e0       	ldi	r23, 0x00	; 0
    20b4:	60 e0       	ldi	r22, 0x00	; 0
    20b6:	08 95       	ret

000020b8 <__fp_nan>:
    20b8:	9f ef       	ldi	r25, 0xFF	; 255
    20ba:	80 ec       	ldi	r24, 0xC0	; 192
    20bc:	08 95       	ret

000020be <__fp_pscA>:
    20be:	00 24       	eor	r0, r0
    20c0:	0a 94       	dec	r0
    20c2:	16 16       	cp	r1, r22
    20c4:	17 06       	cpc	r1, r23
    20c6:	18 06       	cpc	r1, r24
    20c8:	09 06       	cpc	r0, r25
    20ca:	08 95       	ret

000020cc <__fp_pscB>:
    20cc:	00 24       	eor	r0, r0
    20ce:	0a 94       	dec	r0
    20d0:	12 16       	cp	r1, r18
    20d2:	13 06       	cpc	r1, r19
    20d4:	14 06       	cpc	r1, r20
    20d6:	05 06       	cpc	r0, r21
    20d8:	08 95       	ret

000020da <__fp_round>:
    20da:	09 2e       	mov	r0, r25
    20dc:	03 94       	inc	r0
    20de:	00 0c       	add	r0, r0
    20e0:	11 f4       	brne	.+4      	; 0x20e6 <__fp_round+0xc>
    20e2:	88 23       	and	r24, r24
    20e4:	52 f0       	brmi	.+20     	; 0x20fa <__fp_round+0x20>
    20e6:	bb 0f       	add	r27, r27
    20e8:	40 f4       	brcc	.+16     	; 0x20fa <__fp_round+0x20>
    20ea:	bf 2b       	or	r27, r31
    20ec:	11 f4       	brne	.+4      	; 0x20f2 <__fp_round+0x18>
    20ee:	60 ff       	sbrs	r22, 0
    20f0:	04 c0       	rjmp	.+8      	; 0x20fa <__fp_round+0x20>
    20f2:	6f 5f       	subi	r22, 0xFF	; 255
    20f4:	7f 4f       	sbci	r23, 0xFF	; 255
    20f6:	8f 4f       	sbci	r24, 0xFF	; 255
    20f8:	9f 4f       	sbci	r25, 0xFF	; 255
    20fa:	08 95       	ret

000020fc <__fp_split3>:
    20fc:	57 fd       	sbrc	r21, 7
    20fe:	90 58       	subi	r25, 0x80	; 128
    2100:	44 0f       	add	r20, r20
    2102:	55 1f       	adc	r21, r21
    2104:	59 f0       	breq	.+22     	; 0x211c <__fp_splitA+0x10>
    2106:	5f 3f       	cpi	r21, 0xFF	; 255
    2108:	71 f0       	breq	.+28     	; 0x2126 <__fp_splitA+0x1a>
    210a:	47 95       	ror	r20

0000210c <__fp_splitA>:
    210c:	88 0f       	add	r24, r24
    210e:	97 fb       	bst	r25, 7
    2110:	99 1f       	adc	r25, r25
    2112:	61 f0       	breq	.+24     	; 0x212c <__fp_splitA+0x20>
    2114:	9f 3f       	cpi	r25, 0xFF	; 255
    2116:	79 f0       	breq	.+30     	; 0x2136 <__fp_splitA+0x2a>
    2118:	87 95       	ror	r24
    211a:	08 95       	ret
    211c:	12 16       	cp	r1, r18
    211e:	13 06       	cpc	r1, r19
    2120:	14 06       	cpc	r1, r20
    2122:	55 1f       	adc	r21, r21
    2124:	f2 cf       	rjmp	.-28     	; 0x210a <__fp_split3+0xe>
    2126:	46 95       	lsr	r20
    2128:	f1 df       	rcall	.-30     	; 0x210c <__fp_splitA>
    212a:	08 c0       	rjmp	.+16     	; 0x213c <__fp_splitA+0x30>
    212c:	16 16       	cp	r1, r22
    212e:	17 06       	cpc	r1, r23
    2130:	18 06       	cpc	r1, r24
    2132:	99 1f       	adc	r25, r25
    2134:	f1 cf       	rjmp	.-30     	; 0x2118 <__fp_splitA+0xc>
    2136:	86 95       	lsr	r24
    2138:	71 05       	cpc	r23, r1
    213a:	61 05       	cpc	r22, r1
    213c:	08 94       	sec
    213e:	08 95       	ret

00002140 <__fp_zero>:
    2140:	e8 94       	clt

00002142 <__fp_szero>:
    2142:	bb 27       	eor	r27, r27
    2144:	66 27       	eor	r22, r22
    2146:	77 27       	eor	r23, r23
    2148:	cb 01       	movw	r24, r22
    214a:	97 f9       	bld	r25, 7
    214c:	08 95       	ret

0000214e <__mulsf3>:
    214e:	0e 94 ba 10 	call	0x2174	; 0x2174 <__mulsf3x>
    2152:	0c 94 6d 10 	jmp	0x20da	; 0x20da <__fp_round>
    2156:	0e 94 5f 10 	call	0x20be	; 0x20be <__fp_pscA>
    215a:	38 f0       	brcs	.+14     	; 0x216a <__mulsf3+0x1c>
    215c:	0e 94 66 10 	call	0x20cc	; 0x20cc <__fp_pscB>
    2160:	20 f0       	brcs	.+8      	; 0x216a <__mulsf3+0x1c>
    2162:	95 23       	and	r25, r21
    2164:	11 f0       	breq	.+4      	; 0x216a <__mulsf3+0x1c>
    2166:	0c 94 56 10 	jmp	0x20ac	; 0x20ac <__fp_inf>
    216a:	0c 94 5c 10 	jmp	0x20b8	; 0x20b8 <__fp_nan>
    216e:	11 24       	eor	r1, r1
    2170:	0c 94 a1 10 	jmp	0x2142	; 0x2142 <__fp_szero>

00002174 <__mulsf3x>:
    2174:	0e 94 7e 10 	call	0x20fc	; 0x20fc <__fp_split3>
    2178:	70 f3       	brcs	.-36     	; 0x2156 <__mulsf3+0x8>

0000217a <__mulsf3_pse>:
    217a:	95 9f       	mul	r25, r21
    217c:	c1 f3       	breq	.-16     	; 0x216e <__mulsf3+0x20>
    217e:	95 0f       	add	r25, r21
    2180:	50 e0       	ldi	r21, 0x00	; 0
    2182:	55 1f       	adc	r21, r21
    2184:	62 9f       	mul	r22, r18
    2186:	f0 01       	movw	r30, r0
    2188:	72 9f       	mul	r23, r18
    218a:	bb 27       	eor	r27, r27
    218c:	f0 0d       	add	r31, r0
    218e:	b1 1d       	adc	r27, r1
    2190:	63 9f       	mul	r22, r19
    2192:	aa 27       	eor	r26, r26
    2194:	f0 0d       	add	r31, r0
    2196:	b1 1d       	adc	r27, r1
    2198:	aa 1f       	adc	r26, r26
    219a:	64 9f       	mul	r22, r20
    219c:	66 27       	eor	r22, r22
    219e:	b0 0d       	add	r27, r0
    21a0:	a1 1d       	adc	r26, r1
    21a2:	66 1f       	adc	r22, r22
    21a4:	82 9f       	mul	r24, r18
    21a6:	22 27       	eor	r18, r18
    21a8:	b0 0d       	add	r27, r0
    21aa:	a1 1d       	adc	r26, r1
    21ac:	62 1f       	adc	r22, r18
    21ae:	73 9f       	mul	r23, r19
    21b0:	b0 0d       	add	r27, r0
    21b2:	a1 1d       	adc	r26, r1
    21b4:	62 1f       	adc	r22, r18
    21b6:	83 9f       	mul	r24, r19
    21b8:	a0 0d       	add	r26, r0
    21ba:	61 1d       	adc	r22, r1
    21bc:	22 1f       	adc	r18, r18
    21be:	74 9f       	mul	r23, r20
    21c0:	33 27       	eor	r19, r19
    21c2:	a0 0d       	add	r26, r0
    21c4:	61 1d       	adc	r22, r1
    21c6:	23 1f       	adc	r18, r19
    21c8:	84 9f       	mul	r24, r20
    21ca:	60 0d       	add	r22, r0
    21cc:	21 1d       	adc	r18, r1
    21ce:	82 2f       	mov	r24, r18
    21d0:	76 2f       	mov	r23, r22
    21d2:	6a 2f       	mov	r22, r26
    21d4:	11 24       	eor	r1, r1
    21d6:	9f 57       	subi	r25, 0x7F	; 127
    21d8:	50 40       	sbci	r21, 0x00	; 0
    21da:	9a f0       	brmi	.+38     	; 0x2202 <__mulsf3_pse+0x88>
    21dc:	f1 f0       	breq	.+60     	; 0x221a <__mulsf3_pse+0xa0>
    21de:	88 23       	and	r24, r24
    21e0:	4a f0       	brmi	.+18     	; 0x21f4 <__mulsf3_pse+0x7a>
    21e2:	ee 0f       	add	r30, r30
    21e4:	ff 1f       	adc	r31, r31
    21e6:	bb 1f       	adc	r27, r27
    21e8:	66 1f       	adc	r22, r22
    21ea:	77 1f       	adc	r23, r23
    21ec:	88 1f       	adc	r24, r24
    21ee:	91 50       	subi	r25, 0x01	; 1
    21f0:	50 40       	sbci	r21, 0x00	; 0
    21f2:	a9 f7       	brne	.-22     	; 0x21de <__mulsf3_pse+0x64>
    21f4:	9e 3f       	cpi	r25, 0xFE	; 254
    21f6:	51 05       	cpc	r21, r1
    21f8:	80 f0       	brcs	.+32     	; 0x221a <__mulsf3_pse+0xa0>
    21fa:	0c 94 56 10 	jmp	0x20ac	; 0x20ac <__fp_inf>
    21fe:	0c 94 a1 10 	jmp	0x2142	; 0x2142 <__fp_szero>
    2202:	5f 3f       	cpi	r21, 0xFF	; 255
    2204:	e4 f3       	brlt	.-8      	; 0x21fe <__mulsf3_pse+0x84>
    2206:	98 3e       	cpi	r25, 0xE8	; 232
    2208:	d4 f3       	brlt	.-12     	; 0x21fe <__mulsf3_pse+0x84>
    220a:	86 95       	lsr	r24
    220c:	77 95       	ror	r23
    220e:	67 95       	ror	r22
    2210:	b7 95       	ror	r27
    2212:	f7 95       	ror	r31
    2214:	e7 95       	ror	r30
    2216:	9f 5f       	subi	r25, 0xFF	; 255
    2218:	c1 f7       	brne	.-16     	; 0x220a <__mulsf3_pse+0x90>
    221a:	fe 2b       	or	r31, r30
    221c:	88 0f       	add	r24, r24
    221e:	91 1d       	adc	r25, r1
    2220:	96 95       	lsr	r25
    2222:	87 95       	ror	r24
    2224:	97 f9       	bld	r25, 7
    2226:	08 95       	ret

00002228 <sin>:
    2228:	9f 93       	push	r25
    222a:	0e 94 1e 11 	call	0x223c	; 0x223c <__fp_rempio2>
    222e:	0f 90       	pop	r0
    2230:	07 fc       	sbrc	r0, 7
    2232:	ee 5f       	subi	r30, 0xFE	; 254
    2234:	0c 94 47 11 	jmp	0x228e	; 0x228e <__fp_sinus>
    2238:	0c 94 5c 10 	jmp	0x20b8	; 0x20b8 <__fp_nan>

0000223c <__fp_rempio2>:
    223c:	0e 94 86 10 	call	0x210c	; 0x210c <__fp_splitA>
    2240:	d8 f3       	brcs	.-10     	; 0x2238 <sin+0x10>
    2242:	e8 94       	clt
    2244:	e0 e0       	ldi	r30, 0x00	; 0
    2246:	bb 27       	eor	r27, r27
    2248:	9f 57       	subi	r25, 0x7F	; 127
    224a:	f0 f0       	brcs	.+60     	; 0x2288 <__fp_rempio2+0x4c>
    224c:	2a ed       	ldi	r18, 0xDA	; 218
    224e:	3f e0       	ldi	r19, 0x0F	; 15
    2250:	49 ec       	ldi	r20, 0xC9	; 201
    2252:	06 c0       	rjmp	.+12     	; 0x2260 <__fp_rempio2+0x24>
    2254:	ee 0f       	add	r30, r30
    2256:	bb 0f       	add	r27, r27
    2258:	66 1f       	adc	r22, r22
    225a:	77 1f       	adc	r23, r23
    225c:	88 1f       	adc	r24, r24
    225e:	28 f0       	brcs	.+10     	; 0x226a <__fp_rempio2+0x2e>
    2260:	b2 3a       	cpi	r27, 0xA2	; 162
    2262:	62 07       	cpc	r22, r18
    2264:	73 07       	cpc	r23, r19
    2266:	84 07       	cpc	r24, r20
    2268:	28 f0       	brcs	.+10     	; 0x2274 <__fp_rempio2+0x38>
    226a:	b2 5a       	subi	r27, 0xA2	; 162
    226c:	62 0b       	sbc	r22, r18
    226e:	73 0b       	sbc	r23, r19
    2270:	84 0b       	sbc	r24, r20
    2272:	e3 95       	inc	r30
    2274:	9a 95       	dec	r25
    2276:	72 f7       	brpl	.-36     	; 0x2254 <__fp_rempio2+0x18>
    2278:	80 38       	cpi	r24, 0x80	; 128
    227a:	30 f4       	brcc	.+12     	; 0x2288 <__fp_rempio2+0x4c>
    227c:	9a 95       	dec	r25
    227e:	bb 0f       	add	r27, r27
    2280:	66 1f       	adc	r22, r22
    2282:	77 1f       	adc	r23, r23
    2284:	88 1f       	adc	r24, r24
    2286:	d2 f7       	brpl	.-12     	; 0x227c <__fp_rempio2+0x40>
    2288:	90 48       	sbci	r25, 0x80	; 128
    228a:	0c 94 5d 11 	jmp	0x22ba	; 0x22ba <__fp_mpack_finite>

0000228e <__fp_sinus>:
    228e:	ef 93       	push	r30
    2290:	e0 ff       	sbrs	r30, 0
    2292:	07 c0       	rjmp	.+14     	; 0x22a2 <__fp_sinus+0x14>
    2294:	a2 ea       	ldi	r26, 0xA2	; 162
    2296:	2a ed       	ldi	r18, 0xDA	; 218
    2298:	3f e0       	ldi	r19, 0x0F	; 15
    229a:	49 ec       	ldi	r20, 0xC9	; 201
    229c:	5f eb       	ldi	r21, 0xBF	; 191
    229e:	0e 94 1c 0f 	call	0x1e38	; 0x1e38 <__addsf3x>
    22a2:	0e 94 6d 10 	call	0x20da	; 0x20da <__fp_round>
    22a6:	0f 90       	pop	r0
    22a8:	03 94       	inc	r0
    22aa:	01 fc       	sbrc	r0, 1
    22ac:	90 58       	subi	r25, 0x80	; 128
    22ae:	ec ea       	ldi	r30, 0xAC	; 172
    22b0:	f0 e0       	ldi	r31, 0x00	; 0
    22b2:	0c 94 69 11 	jmp	0x22d2	; 0x22d2 <__fp_powsodd>

000022b6 <__fp_mpack>:
    22b6:	9f 3f       	cpi	r25, 0xFF	; 255
    22b8:	31 f0       	breq	.+12     	; 0x22c6 <__fp_mpack_finite+0xc>

000022ba <__fp_mpack_finite>:
    22ba:	91 50       	subi	r25, 0x01	; 1
    22bc:	20 f4       	brcc	.+8      	; 0x22c6 <__fp_mpack_finite+0xc>
    22be:	87 95       	ror	r24
    22c0:	77 95       	ror	r23
    22c2:	67 95       	ror	r22
    22c4:	b7 95       	ror	r27
    22c6:	88 0f       	add	r24, r24
    22c8:	91 1d       	adc	r25, r1
    22ca:	96 95       	lsr	r25
    22cc:	87 95       	ror	r24
    22ce:	97 f9       	bld	r25, 7
    22d0:	08 95       	ret

000022d2 <__fp_powsodd>:
    22d2:	9f 93       	push	r25
    22d4:	8f 93       	push	r24
    22d6:	7f 93       	push	r23
    22d8:	6f 93       	push	r22
    22da:	ff 93       	push	r31
    22dc:	ef 93       	push	r30
    22de:	9b 01       	movw	r18, r22
    22e0:	ac 01       	movw	r20, r24
    22e2:	0e 94 a7 10 	call	0x214e	; 0x214e <__mulsf3>
    22e6:	ef 91       	pop	r30
    22e8:	ff 91       	pop	r31
    22ea:	0e 94 7d 11 	call	0x22fa	; 0x22fa <__fp_powser>
    22ee:	2f 91       	pop	r18
    22f0:	3f 91       	pop	r19
    22f2:	4f 91       	pop	r20
    22f4:	5f 91       	pop	r21
    22f6:	0c 94 a7 10 	jmp	0x214e	; 0x214e <__mulsf3>

000022fa <__fp_powser>:
    22fa:	df 93       	push	r29
    22fc:	cf 93       	push	r28
    22fe:	1f 93       	push	r17
    2300:	0f 93       	push	r16
    2302:	ff 92       	push	r15
    2304:	ef 92       	push	r14
    2306:	df 92       	push	r13
    2308:	7b 01       	movw	r14, r22
    230a:	8c 01       	movw	r16, r24
    230c:	68 94       	set
    230e:	06 c0       	rjmp	.+12     	; 0x231c <__fp_powser+0x22>
    2310:	da 2e       	mov	r13, r26
    2312:	ef 01       	movw	r28, r30
    2314:	0e 94 ba 10 	call	0x2174	; 0x2174 <__mulsf3x>
    2318:	fe 01       	movw	r30, r28
    231a:	e8 94       	clt
    231c:	a5 91       	lpm	r26, Z+
    231e:	25 91       	lpm	r18, Z+
    2320:	35 91       	lpm	r19, Z+
    2322:	45 91       	lpm	r20, Z+
    2324:	55 91       	lpm	r21, Z+
    2326:	a6 f3       	brts	.-24     	; 0x2310 <__fp_powser+0x16>
    2328:	ef 01       	movw	r28, r30
    232a:	0e 94 1c 0f 	call	0x1e38	; 0x1e38 <__addsf3x>
    232e:	fe 01       	movw	r30, r28
    2330:	97 01       	movw	r18, r14
    2332:	a8 01       	movw	r20, r16
    2334:	da 94       	dec	r13
    2336:	69 f7       	brne	.-38     	; 0x2312 <__fp_powser+0x18>
    2338:	df 90       	pop	r13
    233a:	ef 90       	pop	r14
    233c:	ff 90       	pop	r15
    233e:	0f 91       	pop	r16
    2340:	1f 91       	pop	r17
    2342:	cf 91       	pop	r28
    2344:	df 91       	pop	r29
    2346:	08 95       	ret

00002348 <vfprintf>:
    2348:	a3 e1       	ldi	r26, 0x13	; 19
    234a:	b0 e0       	ldi	r27, 0x00	; 0
    234c:	ea ea       	ldi	r30, 0xAA	; 170
    234e:	f1 e1       	ldi	r31, 0x11	; 17
    2350:	0c 94 34 15 	jmp	0x2a68	; 0x2a68 <__prologue_saves__>
    2354:	6c 01       	movw	r12, r24
    2356:	4b 01       	movw	r8, r22
    2358:	2a 01       	movw	r4, r20
    235a:	fc 01       	movw	r30, r24
    235c:	16 82       	std	Z+6, r1	; 0x06
    235e:	17 82       	std	Z+7, r1	; 0x07
    2360:	83 81       	ldd	r24, Z+3	; 0x03
    2362:	81 ff       	sbrs	r24, 1
    2364:	43 c3       	rjmp	.+1670   	; 0x29ec <vfprintf+0x6a4>
    2366:	ae 01       	movw	r20, r28
    2368:	4f 5f       	subi	r20, 0xFF	; 255
    236a:	5f 4f       	sbci	r21, 0xFF	; 255
    236c:	3a 01       	movw	r6, r20
    236e:	f6 01       	movw	r30, r12
    2370:	93 81       	ldd	r25, Z+3	; 0x03
    2372:	f4 01       	movw	r30, r8
    2374:	93 fd       	sbrc	r25, 3
    2376:	85 91       	lpm	r24, Z+
    2378:	93 ff       	sbrs	r25, 3
    237a:	81 91       	ld	r24, Z+
    237c:	4f 01       	movw	r8, r30
    237e:	88 23       	and	r24, r24
    2380:	09 f4       	brne	.+2      	; 0x2384 <vfprintf+0x3c>
    2382:	30 c3       	rjmp	.+1632   	; 0x29e4 <vfprintf+0x69c>
    2384:	85 32       	cpi	r24, 0x25	; 37
    2386:	39 f4       	brne	.+14     	; 0x2396 <vfprintf+0x4e>
    2388:	93 fd       	sbrc	r25, 3
    238a:	85 91       	lpm	r24, Z+
    238c:	93 ff       	sbrs	r25, 3
    238e:	81 91       	ld	r24, Z+
    2390:	4f 01       	movw	r8, r30
    2392:	85 32       	cpi	r24, 0x25	; 37
    2394:	39 f4       	brne	.+14     	; 0x23a4 <vfprintf+0x5c>
    2396:	b6 01       	movw	r22, r12
    2398:	90 e0       	ldi	r25, 0x00	; 0
    239a:	0e 94 67 16 	call	0x2cce	; 0x2cce <fputc>
    239e:	52 01       	movw	r10, r4
    23a0:	25 01       	movw	r4, r10
    23a2:	e5 cf       	rjmp	.-54     	; 0x236e <vfprintf+0x26>
    23a4:	10 e0       	ldi	r17, 0x00	; 0
    23a6:	f1 2c       	mov	r15, r1
    23a8:	20 e0       	ldi	r18, 0x00	; 0
    23aa:	20 32       	cpi	r18, 0x20	; 32
    23ac:	a0 f4       	brcc	.+40     	; 0x23d6 <vfprintf+0x8e>
    23ae:	8b 32       	cpi	r24, 0x2B	; 43
    23b0:	69 f0       	breq	.+26     	; 0x23cc <vfprintf+0x84>
    23b2:	30 f4       	brcc	.+12     	; 0x23c0 <vfprintf+0x78>
    23b4:	80 32       	cpi	r24, 0x20	; 32
    23b6:	59 f0       	breq	.+22     	; 0x23ce <vfprintf+0x86>
    23b8:	83 32       	cpi	r24, 0x23	; 35
    23ba:	69 f4       	brne	.+26     	; 0x23d6 <vfprintf+0x8e>
    23bc:	20 61       	ori	r18, 0x10	; 16
    23be:	2c c0       	rjmp	.+88     	; 0x2418 <vfprintf+0xd0>
    23c0:	8d 32       	cpi	r24, 0x2D	; 45
    23c2:	39 f0       	breq	.+14     	; 0x23d2 <vfprintf+0x8a>
    23c4:	80 33       	cpi	r24, 0x30	; 48
    23c6:	39 f4       	brne	.+14     	; 0x23d6 <vfprintf+0x8e>
    23c8:	21 60       	ori	r18, 0x01	; 1
    23ca:	26 c0       	rjmp	.+76     	; 0x2418 <vfprintf+0xd0>
    23cc:	22 60       	ori	r18, 0x02	; 2
    23ce:	24 60       	ori	r18, 0x04	; 4
    23d0:	23 c0       	rjmp	.+70     	; 0x2418 <vfprintf+0xd0>
    23d2:	28 60       	ori	r18, 0x08	; 8
    23d4:	21 c0       	rjmp	.+66     	; 0x2418 <vfprintf+0xd0>
    23d6:	27 fd       	sbrc	r18, 7
    23d8:	27 c0       	rjmp	.+78     	; 0x2428 <vfprintf+0xe0>
    23da:	30 ed       	ldi	r19, 0xD0	; 208
    23dc:	38 0f       	add	r19, r24
    23de:	3a 30       	cpi	r19, 0x0A	; 10
    23e0:	78 f4       	brcc	.+30     	; 0x2400 <vfprintf+0xb8>
    23e2:	26 ff       	sbrs	r18, 6
    23e4:	06 c0       	rjmp	.+12     	; 0x23f2 <vfprintf+0xaa>
    23e6:	fa e0       	ldi	r31, 0x0A	; 10
    23e8:	1f 9f       	mul	r17, r31
    23ea:	30 0d       	add	r19, r0
    23ec:	11 24       	eor	r1, r1
    23ee:	13 2f       	mov	r17, r19
    23f0:	13 c0       	rjmp	.+38     	; 0x2418 <vfprintf+0xd0>
    23f2:	4a e0       	ldi	r20, 0x0A	; 10
    23f4:	f4 9e       	mul	r15, r20
    23f6:	30 0d       	add	r19, r0
    23f8:	11 24       	eor	r1, r1
    23fa:	f3 2e       	mov	r15, r19
    23fc:	20 62       	ori	r18, 0x20	; 32
    23fe:	0c c0       	rjmp	.+24     	; 0x2418 <vfprintf+0xd0>
    2400:	8e 32       	cpi	r24, 0x2E	; 46
    2402:	21 f4       	brne	.+8      	; 0x240c <vfprintf+0xc4>
    2404:	26 fd       	sbrc	r18, 6
    2406:	ee c2       	rjmp	.+1500   	; 0x29e4 <vfprintf+0x69c>
    2408:	20 64       	ori	r18, 0x40	; 64
    240a:	06 c0       	rjmp	.+12     	; 0x2418 <vfprintf+0xd0>
    240c:	8c 36       	cpi	r24, 0x6C	; 108
    240e:	11 f4       	brne	.+4      	; 0x2414 <vfprintf+0xcc>
    2410:	20 68       	ori	r18, 0x80	; 128
    2412:	02 c0       	rjmp	.+4      	; 0x2418 <vfprintf+0xd0>
    2414:	88 36       	cpi	r24, 0x68	; 104
    2416:	41 f4       	brne	.+16     	; 0x2428 <vfprintf+0xe0>
    2418:	f4 01       	movw	r30, r8
    241a:	93 fd       	sbrc	r25, 3
    241c:	85 91       	lpm	r24, Z+
    241e:	93 ff       	sbrs	r25, 3
    2420:	81 91       	ld	r24, Z+
    2422:	4f 01       	movw	r8, r30
    2424:	81 11       	cpse	r24, r1
    2426:	c1 cf       	rjmp	.-126    	; 0x23aa <vfprintf+0x62>
    2428:	9b eb       	ldi	r25, 0xBB	; 187
    242a:	98 0f       	add	r25, r24
    242c:	93 30       	cpi	r25, 0x03	; 3
    242e:	18 f4       	brcc	.+6      	; 0x2436 <vfprintf+0xee>
    2430:	20 61       	ori	r18, 0x10	; 16
    2432:	80 5e       	subi	r24, 0xE0	; 224
    2434:	06 c0       	rjmp	.+12     	; 0x2442 <vfprintf+0xfa>
    2436:	9b e9       	ldi	r25, 0x9B	; 155
    2438:	98 0f       	add	r25, r24
    243a:	93 30       	cpi	r25, 0x03	; 3
    243c:	08 f0       	brcs	.+2      	; 0x2440 <vfprintf+0xf8>
    243e:	71 c1       	rjmp	.+738    	; 0x2722 <vfprintf+0x3da>
    2440:	2f 7e       	andi	r18, 0xEF	; 239
    2442:	26 ff       	sbrs	r18, 6
    2444:	16 e0       	ldi	r17, 0x06	; 6
    2446:	2f 73       	andi	r18, 0x3F	; 63
    2448:	32 2e       	mov	r3, r18
    244a:	85 36       	cpi	r24, 0x65	; 101
    244c:	19 f4       	brne	.+6      	; 0x2454 <vfprintf+0x10c>
    244e:	20 64       	ori	r18, 0x40	; 64
    2450:	32 2e       	mov	r3, r18
    2452:	08 c0       	rjmp	.+16     	; 0x2464 <vfprintf+0x11c>
    2454:	86 36       	cpi	r24, 0x66	; 102
    2456:	21 f4       	brne	.+8      	; 0x2460 <vfprintf+0x118>
    2458:	f2 2f       	mov	r31, r18
    245a:	f0 68       	ori	r31, 0x80	; 128
    245c:	3f 2e       	mov	r3, r31
    245e:	02 c0       	rjmp	.+4      	; 0x2464 <vfprintf+0x11c>
    2460:	11 11       	cpse	r17, r1
    2462:	11 50       	subi	r17, 0x01	; 1
    2464:	37 fe       	sbrs	r3, 7
    2466:	07 c0       	rjmp	.+14     	; 0x2476 <vfprintf+0x12e>
    2468:	1c 33       	cpi	r17, 0x3C	; 60
    246a:	50 f4       	brcc	.+20     	; 0x2480 <vfprintf+0x138>
    246c:	ee 24       	eor	r14, r14
    246e:	e3 94       	inc	r14
    2470:	e1 0e       	add	r14, r17
    2472:	27 e0       	ldi	r18, 0x07	; 7
    2474:	0b c0       	rjmp	.+22     	; 0x248c <vfprintf+0x144>
    2476:	18 30       	cpi	r17, 0x08	; 8
    2478:	38 f0       	brcs	.+14     	; 0x2488 <vfprintf+0x140>
    247a:	27 e0       	ldi	r18, 0x07	; 7
    247c:	17 e0       	ldi	r17, 0x07	; 7
    247e:	05 c0       	rjmp	.+10     	; 0x248a <vfprintf+0x142>
    2480:	27 e0       	ldi	r18, 0x07	; 7
    2482:	4c e3       	ldi	r20, 0x3C	; 60
    2484:	e4 2e       	mov	r14, r20
    2486:	02 c0       	rjmp	.+4      	; 0x248c <vfprintf+0x144>
    2488:	21 2f       	mov	r18, r17
    248a:	e1 2c       	mov	r14, r1
    248c:	52 01       	movw	r10, r4
    248e:	44 e0       	ldi	r20, 0x04	; 4
    2490:	a4 0e       	add	r10, r20
    2492:	b1 1c       	adc	r11, r1
    2494:	f2 01       	movw	r30, r4
    2496:	60 81       	ld	r22, Z
    2498:	71 81       	ldd	r23, Z+1	; 0x01
    249a:	82 81       	ldd	r24, Z+2	; 0x02
    249c:	93 81       	ldd	r25, Z+3	; 0x03
    249e:	0e 2d       	mov	r16, r14
    24a0:	a3 01       	movw	r20, r6
    24a2:	0e 94 79 15 	call	0x2af2	; 0x2af2 <__ftoa_engine>
    24a6:	2c 01       	movw	r4, r24
    24a8:	09 81       	ldd	r16, Y+1	; 0x01
    24aa:	00 ff       	sbrs	r16, 0
    24ac:	02 c0       	rjmp	.+4      	; 0x24b2 <vfprintf+0x16a>
    24ae:	03 ff       	sbrs	r16, 3
    24b0:	07 c0       	rjmp	.+14     	; 0x24c0 <vfprintf+0x178>
    24b2:	31 fc       	sbrc	r3, 1
    24b4:	08 c0       	rjmp	.+16     	; 0x24c6 <vfprintf+0x17e>
    24b6:	32 fe       	sbrs	r3, 2
    24b8:	09 c0       	rjmp	.+18     	; 0x24cc <vfprintf+0x184>
    24ba:	30 e2       	ldi	r19, 0x20	; 32
    24bc:	23 2e       	mov	r2, r19
    24be:	07 c0       	rjmp	.+14     	; 0x24ce <vfprintf+0x186>
    24c0:	2d e2       	ldi	r18, 0x2D	; 45
    24c2:	22 2e       	mov	r2, r18
    24c4:	04 c0       	rjmp	.+8      	; 0x24ce <vfprintf+0x186>
    24c6:	9b e2       	ldi	r25, 0x2B	; 43
    24c8:	29 2e       	mov	r2, r25
    24ca:	01 c0       	rjmp	.+2      	; 0x24ce <vfprintf+0x186>
    24cc:	21 2c       	mov	r2, r1
    24ce:	80 2f       	mov	r24, r16
    24d0:	8c 70       	andi	r24, 0x0C	; 12
    24d2:	19 f0       	breq	.+6      	; 0x24da <vfprintf+0x192>
    24d4:	21 10       	cpse	r2, r1
    24d6:	68 c2       	rjmp	.+1232   	; 0x29a8 <vfprintf+0x660>
    24d8:	a8 c2       	rjmp	.+1360   	; 0x2a2a <vfprintf+0x6e2>
    24da:	37 fe       	sbrs	r3, 7
    24dc:	0f c0       	rjmp	.+30     	; 0x24fc <vfprintf+0x1b4>
    24de:	e4 0c       	add	r14, r4
    24e0:	04 ff       	sbrs	r16, 4
    24e2:	04 c0       	rjmp	.+8      	; 0x24ec <vfprintf+0x1a4>
    24e4:	8a 81       	ldd	r24, Y+2	; 0x02
    24e6:	81 33       	cpi	r24, 0x31	; 49
    24e8:	09 f4       	brne	.+2      	; 0x24ec <vfprintf+0x1a4>
    24ea:	ea 94       	dec	r14
    24ec:	1e 14       	cp	r1, r14
    24ee:	74 f5       	brge	.+92     	; 0x254c <vfprintf+0x204>
    24f0:	f8 e0       	ldi	r31, 0x08	; 8
    24f2:	fe 15       	cp	r31, r14
    24f4:	78 f5       	brcc	.+94     	; 0x2554 <vfprintf+0x20c>
    24f6:	88 e0       	ldi	r24, 0x08	; 8
    24f8:	e8 2e       	mov	r14, r24
    24fa:	2c c0       	rjmp	.+88     	; 0x2554 <vfprintf+0x20c>
    24fc:	36 fc       	sbrc	r3, 6
    24fe:	2a c0       	rjmp	.+84     	; 0x2554 <vfprintf+0x20c>
    2500:	81 2f       	mov	r24, r17
    2502:	90 e0       	ldi	r25, 0x00	; 0
    2504:	84 15       	cp	r24, r4
    2506:	95 05       	cpc	r25, r5
    2508:	9c f0       	brlt	.+38     	; 0x2530 <vfprintf+0x1e8>
    250a:	2c ef       	ldi	r18, 0xFC	; 252
    250c:	42 16       	cp	r4, r18
    250e:	2f ef       	ldi	r18, 0xFF	; 255
    2510:	52 06       	cpc	r5, r18
    2512:	74 f0       	brlt	.+28     	; 0x2530 <vfprintf+0x1e8>
    2514:	43 2d       	mov	r20, r3
    2516:	40 68       	ori	r20, 0x80	; 128
    2518:	34 2e       	mov	r3, r20
    251a:	0a c0       	rjmp	.+20     	; 0x2530 <vfprintf+0x1e8>
    251c:	e2 e0       	ldi	r30, 0x02	; 2
    251e:	f0 e0       	ldi	r31, 0x00	; 0
    2520:	ec 0f       	add	r30, r28
    2522:	fd 1f       	adc	r31, r29
    2524:	e1 0f       	add	r30, r17
    2526:	f1 1d       	adc	r31, r1
    2528:	80 81       	ld	r24, Z
    252a:	80 33       	cpi	r24, 0x30	; 48
    252c:	19 f4       	brne	.+6      	; 0x2534 <vfprintf+0x1ec>
    252e:	11 50       	subi	r17, 0x01	; 1
    2530:	11 11       	cpse	r17, r1
    2532:	f4 cf       	rjmp	.-24     	; 0x251c <vfprintf+0x1d4>
    2534:	37 fe       	sbrs	r3, 7
    2536:	0e c0       	rjmp	.+28     	; 0x2554 <vfprintf+0x20c>
    2538:	ee 24       	eor	r14, r14
    253a:	e3 94       	inc	r14
    253c:	e1 0e       	add	r14, r17
    253e:	81 2f       	mov	r24, r17
    2540:	90 e0       	ldi	r25, 0x00	; 0
    2542:	48 16       	cp	r4, r24
    2544:	59 06       	cpc	r5, r25
    2546:	2c f4       	brge	.+10     	; 0x2552 <vfprintf+0x20a>
    2548:	14 19       	sub	r17, r4
    254a:	04 c0       	rjmp	.+8      	; 0x2554 <vfprintf+0x20c>
    254c:	ee 24       	eor	r14, r14
    254e:	e3 94       	inc	r14
    2550:	01 c0       	rjmp	.+2      	; 0x2554 <vfprintf+0x20c>
    2552:	10 e0       	ldi	r17, 0x00	; 0
    2554:	37 fe       	sbrs	r3, 7
    2556:	06 c0       	rjmp	.+12     	; 0x2564 <vfprintf+0x21c>
    2558:	14 14       	cp	r1, r4
    255a:	15 04       	cpc	r1, r5
    255c:	34 f4       	brge	.+12     	; 0x256a <vfprintf+0x222>
    255e:	c2 01       	movw	r24, r4
    2560:	01 96       	adiw	r24, 0x01	; 1
    2562:	05 c0       	rjmp	.+10     	; 0x256e <vfprintf+0x226>
    2564:	85 e0       	ldi	r24, 0x05	; 5
    2566:	90 e0       	ldi	r25, 0x00	; 0
    2568:	02 c0       	rjmp	.+4      	; 0x256e <vfprintf+0x226>
    256a:	81 e0       	ldi	r24, 0x01	; 1
    256c:	90 e0       	ldi	r25, 0x00	; 0
    256e:	21 10       	cpse	r2, r1
    2570:	01 96       	adiw	r24, 0x01	; 1
    2572:	11 23       	and	r17, r17
    2574:	31 f0       	breq	.+12     	; 0x2582 <vfprintf+0x23a>
    2576:	21 2f       	mov	r18, r17
    2578:	30 e0       	ldi	r19, 0x00	; 0
    257a:	2f 5f       	subi	r18, 0xFF	; 255
    257c:	3f 4f       	sbci	r19, 0xFF	; 255
    257e:	82 0f       	add	r24, r18
    2580:	93 1f       	adc	r25, r19
    2582:	2f 2d       	mov	r18, r15
    2584:	30 e0       	ldi	r19, 0x00	; 0
    2586:	82 17       	cp	r24, r18
    2588:	93 07       	cpc	r25, r19
    258a:	14 f4       	brge	.+4      	; 0x2590 <vfprintf+0x248>
    258c:	f8 1a       	sub	r15, r24
    258e:	01 c0       	rjmp	.+2      	; 0x2592 <vfprintf+0x24a>
    2590:	f1 2c       	mov	r15, r1
    2592:	83 2d       	mov	r24, r3
    2594:	89 70       	andi	r24, 0x09	; 9
    2596:	49 f4       	brne	.+18     	; 0x25aa <vfprintf+0x262>
    2598:	ff 20       	and	r15, r15
    259a:	39 f0       	breq	.+14     	; 0x25aa <vfprintf+0x262>
    259c:	b6 01       	movw	r22, r12
    259e:	80 e2       	ldi	r24, 0x20	; 32
    25a0:	90 e0       	ldi	r25, 0x00	; 0
    25a2:	0e 94 67 16 	call	0x2cce	; 0x2cce <fputc>
    25a6:	fa 94       	dec	r15
    25a8:	f7 cf       	rjmp	.-18     	; 0x2598 <vfprintf+0x250>
    25aa:	22 20       	and	r2, r2
    25ac:	29 f0       	breq	.+10     	; 0x25b8 <vfprintf+0x270>
    25ae:	b6 01       	movw	r22, r12
    25b0:	82 2d       	mov	r24, r2
    25b2:	90 e0       	ldi	r25, 0x00	; 0
    25b4:	0e 94 67 16 	call	0x2cce	; 0x2cce <fputc>
    25b8:	33 fc       	sbrc	r3, 3
    25ba:	09 c0       	rjmp	.+18     	; 0x25ce <vfprintf+0x286>
    25bc:	ff 20       	and	r15, r15
    25be:	39 f0       	breq	.+14     	; 0x25ce <vfprintf+0x286>
    25c0:	b6 01       	movw	r22, r12
    25c2:	80 e3       	ldi	r24, 0x30	; 48
    25c4:	90 e0       	ldi	r25, 0x00	; 0
    25c6:	0e 94 67 16 	call	0x2cce	; 0x2cce <fputc>
    25ca:	fa 94       	dec	r15
    25cc:	f7 cf       	rjmp	.-18     	; 0x25bc <vfprintf+0x274>
    25ce:	37 fe       	sbrs	r3, 7
    25d0:	5a c0       	rjmp	.+180    	; 0x2686 <vfprintf+0x33e>
    25d2:	94 2d       	mov	r25, r4
    25d4:	85 2d       	mov	r24, r5
    25d6:	57 fe       	sbrs	r5, 7
    25d8:	02 c0       	rjmp	.+4      	; 0x25de <vfprintf+0x296>
    25da:	90 e0       	ldi	r25, 0x00	; 0
    25dc:	80 e0       	ldi	r24, 0x00	; 0
    25de:	29 2e       	mov	r2, r25
    25e0:	38 2e       	mov	r3, r24
    25e2:	20 e0       	ldi	r18, 0x00	; 0
    25e4:	30 e0       	ldi	r19, 0x00	; 0
    25e6:	a2 01       	movw	r20, r4
    25e8:	4e 19       	sub	r20, r14
    25ea:	51 09       	sbc	r21, r1
    25ec:	4c 87       	std	Y+12, r20	; 0x0c
    25ee:	5d 87       	std	Y+13, r21	; 0x0d
    25f0:	a2 01       	movw	r20, r4
    25f2:	42 19       	sub	r20, r2
    25f4:	53 09       	sbc	r21, r3
    25f6:	4e 87       	std	Y+14, r20	; 0x0e
    25f8:	5f 87       	std	Y+15, r21	; 0x0f
    25fa:	61 2f       	mov	r22, r17
    25fc:	70 e0       	ldi	r23, 0x00	; 0
    25fe:	44 27       	eor	r20, r20
    2600:	55 27       	eor	r21, r21
    2602:	46 1b       	sub	r20, r22
    2604:	57 0b       	sbc	r21, r23
    2606:	48 8b       	std	Y+16, r20	; 0x10
    2608:	59 8b       	std	Y+17, r21	; 0x11
    260a:	5f ef       	ldi	r21, 0xFF	; 255
    260c:	25 16       	cp	r2, r21
    260e:	35 06       	cpc	r3, r21
    2610:	49 f4       	brne	.+18     	; 0x2624 <vfprintf+0x2dc>
    2612:	b6 01       	movw	r22, r12
    2614:	8e e2       	ldi	r24, 0x2E	; 46
    2616:	90 e0       	ldi	r25, 0x00	; 0
    2618:	2a 8b       	std	Y+18, r18	; 0x12
    261a:	3b 8b       	std	Y+19, r19	; 0x13
    261c:	0e 94 67 16 	call	0x2cce	; 0x2cce <fputc>
    2620:	3b 89       	ldd	r19, Y+19	; 0x13
    2622:	2a 89       	ldd	r18, Y+18	; 0x12
    2624:	42 14       	cp	r4, r2
    2626:	53 04       	cpc	r5, r3
    2628:	6c f0       	brlt	.+26     	; 0x2644 <vfprintf+0x2fc>
    262a:	4c 85       	ldd	r20, Y+12	; 0x0c
    262c:	5d 85       	ldd	r21, Y+13	; 0x0d
    262e:	42 15       	cp	r20, r2
    2630:	53 05       	cpc	r21, r3
    2632:	44 f4       	brge	.+16     	; 0x2644 <vfprintf+0x2fc>
    2634:	ee 85       	ldd	r30, Y+14	; 0x0e
    2636:	ff 85       	ldd	r31, Y+15	; 0x0f
    2638:	e2 0f       	add	r30, r18
    263a:	f3 1f       	adc	r31, r19
    263c:	e6 0d       	add	r30, r6
    263e:	f7 1d       	adc	r31, r7
    2640:	81 81       	ldd	r24, Z+1	; 0x01
    2642:	01 c0       	rjmp	.+2      	; 0x2646 <vfprintf+0x2fe>
    2644:	80 e3       	ldi	r24, 0x30	; 48
    2646:	51 e0       	ldi	r21, 0x01	; 1
    2648:	25 1a       	sub	r2, r21
    264a:	31 08       	sbc	r3, r1
    264c:	2f 5f       	subi	r18, 0xFF	; 255
    264e:	3f 4f       	sbci	r19, 0xFF	; 255
    2650:	48 89       	ldd	r20, Y+16	; 0x10
    2652:	59 89       	ldd	r21, Y+17	; 0x11
    2654:	24 16       	cp	r2, r20
    2656:	35 06       	cpc	r3, r21
    2658:	4c f0       	brlt	.+18     	; 0x266c <vfprintf+0x324>
    265a:	b6 01       	movw	r22, r12
    265c:	90 e0       	ldi	r25, 0x00	; 0
    265e:	2a 8b       	std	Y+18, r18	; 0x12
    2660:	3b 8b       	std	Y+19, r19	; 0x13
    2662:	0e 94 67 16 	call	0x2cce	; 0x2cce <fputc>
    2666:	2a 89       	ldd	r18, Y+18	; 0x12
    2668:	3b 89       	ldd	r19, Y+19	; 0x13
    266a:	cf cf       	rjmp	.-98     	; 0x260a <vfprintf+0x2c2>
    266c:	24 14       	cp	r2, r4
    266e:	35 04       	cpc	r3, r5
    2670:	39 f4       	brne	.+14     	; 0x2680 <vfprintf+0x338>
    2672:	9a 81       	ldd	r25, Y+2	; 0x02
    2674:	96 33       	cpi	r25, 0x36	; 54
    2676:	18 f4       	brcc	.+6      	; 0x267e <vfprintf+0x336>
    2678:	95 33       	cpi	r25, 0x35	; 53
    267a:	11 f4       	brne	.+4      	; 0x2680 <vfprintf+0x338>
    267c:	04 ff       	sbrs	r16, 4
    267e:	81 e3       	ldi	r24, 0x31	; 49
    2680:	b6 01       	movw	r22, r12
    2682:	90 e0       	ldi	r25, 0x00	; 0
    2684:	4b c0       	rjmp	.+150    	; 0x271c <vfprintf+0x3d4>
    2686:	8a 81       	ldd	r24, Y+2	; 0x02
    2688:	81 33       	cpi	r24, 0x31	; 49
    268a:	09 f0       	breq	.+2      	; 0x268e <vfprintf+0x346>
    268c:	0f 7e       	andi	r16, 0xEF	; 239
    268e:	b6 01       	movw	r22, r12
    2690:	90 e0       	ldi	r25, 0x00	; 0
    2692:	0e 94 67 16 	call	0x2cce	; 0x2cce <fputc>
    2696:	11 11       	cpse	r17, r1
    2698:	05 c0       	rjmp	.+10     	; 0x26a4 <vfprintf+0x35c>
    269a:	34 fc       	sbrc	r3, 4
    269c:	18 c0       	rjmp	.+48     	; 0x26ce <vfprintf+0x386>
    269e:	85 e6       	ldi	r24, 0x65	; 101
    26a0:	90 e0       	ldi	r25, 0x00	; 0
    26a2:	17 c0       	rjmp	.+46     	; 0x26d2 <vfprintf+0x38a>
    26a4:	b6 01       	movw	r22, r12
    26a6:	8e e2       	ldi	r24, 0x2E	; 46
    26a8:	90 e0       	ldi	r25, 0x00	; 0
    26aa:	0e 94 67 16 	call	0x2cce	; 0x2cce <fputc>
    26ae:	82 e0       	ldi	r24, 0x02	; 2
    26b0:	ee 24       	eor	r14, r14
    26b2:	e3 94       	inc	r14
    26b4:	e8 0e       	add	r14, r24
    26b6:	f3 01       	movw	r30, r6
    26b8:	e8 0f       	add	r30, r24
    26ba:	f1 1d       	adc	r31, r1
    26bc:	80 81       	ld	r24, Z
    26be:	b6 01       	movw	r22, r12
    26c0:	90 e0       	ldi	r25, 0x00	; 0
    26c2:	0e 94 67 16 	call	0x2cce	; 0x2cce <fputc>
    26c6:	11 50       	subi	r17, 0x01	; 1
    26c8:	8e 2d       	mov	r24, r14
    26ca:	91 f7       	brne	.-28     	; 0x26b0 <vfprintf+0x368>
    26cc:	e6 cf       	rjmp	.-52     	; 0x269a <vfprintf+0x352>
    26ce:	85 e4       	ldi	r24, 0x45	; 69
    26d0:	90 e0       	ldi	r25, 0x00	; 0
    26d2:	b6 01       	movw	r22, r12
    26d4:	0e 94 67 16 	call	0x2cce	; 0x2cce <fputc>
    26d8:	57 fc       	sbrc	r5, 7
    26da:	05 c0       	rjmp	.+10     	; 0x26e6 <vfprintf+0x39e>
    26dc:	41 14       	cp	r4, r1
    26de:	51 04       	cpc	r5, r1
    26e0:	39 f4       	brne	.+14     	; 0x26f0 <vfprintf+0x3a8>
    26e2:	04 ff       	sbrs	r16, 4
    26e4:	05 c0       	rjmp	.+10     	; 0x26f0 <vfprintf+0x3a8>
    26e6:	51 94       	neg	r5
    26e8:	41 94       	neg	r4
    26ea:	51 08       	sbc	r5, r1
    26ec:	8d e2       	ldi	r24, 0x2D	; 45
    26ee:	01 c0       	rjmp	.+2      	; 0x26f2 <vfprintf+0x3aa>
    26f0:	8b e2       	ldi	r24, 0x2B	; 43
    26f2:	b6 01       	movw	r22, r12
    26f4:	90 e0       	ldi	r25, 0x00	; 0
    26f6:	0e 94 67 16 	call	0x2cce	; 0x2cce <fputc>
    26fa:	80 e3       	ldi	r24, 0x30	; 48
    26fc:	9a e0       	ldi	r25, 0x0A	; 10
    26fe:	49 16       	cp	r4, r25
    2700:	51 04       	cpc	r5, r1
    2702:	2c f0       	brlt	.+10     	; 0x270e <vfprintf+0x3c6>
    2704:	8f 5f       	subi	r24, 0xFF	; 255
    2706:	5a e0       	ldi	r21, 0x0A	; 10
    2708:	45 1a       	sub	r4, r21
    270a:	51 08       	sbc	r5, r1
    270c:	f7 cf       	rjmp	.-18     	; 0x26fc <vfprintf+0x3b4>
    270e:	b6 01       	movw	r22, r12
    2710:	90 e0       	ldi	r25, 0x00	; 0
    2712:	0e 94 67 16 	call	0x2cce	; 0x2cce <fputc>
    2716:	b6 01       	movw	r22, r12
    2718:	c2 01       	movw	r24, r4
    271a:	c0 96       	adiw	r24, 0x30	; 48
    271c:	0e 94 67 16 	call	0x2cce	; 0x2cce <fputc>
    2720:	57 c1       	rjmp	.+686    	; 0x29d0 <vfprintf+0x688>
    2722:	83 36       	cpi	r24, 0x63	; 99
    2724:	31 f0       	breq	.+12     	; 0x2732 <vfprintf+0x3ea>
    2726:	83 37       	cpi	r24, 0x73	; 115
    2728:	79 f0       	breq	.+30     	; 0x2748 <vfprintf+0x400>
    272a:	83 35       	cpi	r24, 0x53	; 83
    272c:	09 f0       	breq	.+2      	; 0x2730 <vfprintf+0x3e8>
    272e:	58 c0       	rjmp	.+176    	; 0x27e0 <vfprintf+0x498>
    2730:	21 c0       	rjmp	.+66     	; 0x2774 <vfprintf+0x42c>
    2732:	52 01       	movw	r10, r4
    2734:	e2 e0       	ldi	r30, 0x02	; 2
    2736:	ae 0e       	add	r10, r30
    2738:	b1 1c       	adc	r11, r1
    273a:	f2 01       	movw	r30, r4
    273c:	80 81       	ld	r24, Z
    273e:	89 83       	std	Y+1, r24	; 0x01
    2740:	01 e0       	ldi	r16, 0x01	; 1
    2742:	10 e0       	ldi	r17, 0x00	; 0
    2744:	23 01       	movw	r4, r6
    2746:	14 c0       	rjmp	.+40     	; 0x2770 <vfprintf+0x428>
    2748:	52 01       	movw	r10, r4
    274a:	f2 e0       	ldi	r31, 0x02	; 2
    274c:	af 0e       	add	r10, r31
    274e:	b1 1c       	adc	r11, r1
    2750:	f2 01       	movw	r30, r4
    2752:	40 80       	ld	r4, Z
    2754:	51 80       	ldd	r5, Z+1	; 0x01
    2756:	26 ff       	sbrs	r18, 6
    2758:	03 c0       	rjmp	.+6      	; 0x2760 <vfprintf+0x418>
    275a:	61 2f       	mov	r22, r17
    275c:	70 e0       	ldi	r23, 0x00	; 0
    275e:	02 c0       	rjmp	.+4      	; 0x2764 <vfprintf+0x41c>
    2760:	6f ef       	ldi	r22, 0xFF	; 255
    2762:	7f ef       	ldi	r23, 0xFF	; 255
    2764:	c2 01       	movw	r24, r4
    2766:	2a 8b       	std	Y+18, r18	; 0x12
    2768:	0e 94 5c 16 	call	0x2cb8	; 0x2cb8 <strnlen>
    276c:	8c 01       	movw	r16, r24
    276e:	2a 89       	ldd	r18, Y+18	; 0x12
    2770:	2f 77       	andi	r18, 0x7F	; 127
    2772:	15 c0       	rjmp	.+42     	; 0x279e <vfprintf+0x456>
    2774:	52 01       	movw	r10, r4
    2776:	f2 e0       	ldi	r31, 0x02	; 2
    2778:	af 0e       	add	r10, r31
    277a:	b1 1c       	adc	r11, r1
    277c:	f2 01       	movw	r30, r4
    277e:	40 80       	ld	r4, Z
    2780:	51 80       	ldd	r5, Z+1	; 0x01
    2782:	26 ff       	sbrs	r18, 6
    2784:	03 c0       	rjmp	.+6      	; 0x278c <vfprintf+0x444>
    2786:	61 2f       	mov	r22, r17
    2788:	70 e0       	ldi	r23, 0x00	; 0
    278a:	02 c0       	rjmp	.+4      	; 0x2790 <vfprintf+0x448>
    278c:	6f ef       	ldi	r22, 0xFF	; 255
    278e:	7f ef       	ldi	r23, 0xFF	; 255
    2790:	c2 01       	movw	r24, r4
    2792:	2a 8b       	std	Y+18, r18	; 0x12
    2794:	0e 94 51 16 	call	0x2ca2	; 0x2ca2 <strnlen_P>
    2798:	8c 01       	movw	r16, r24
    279a:	2a 89       	ldd	r18, Y+18	; 0x12
    279c:	20 68       	ori	r18, 0x80	; 128
    279e:	32 2e       	mov	r3, r18
    27a0:	23 fd       	sbrc	r18, 3
    27a2:	1a c0       	rjmp	.+52     	; 0x27d8 <vfprintf+0x490>
    27a4:	8f 2d       	mov	r24, r15
    27a6:	90 e0       	ldi	r25, 0x00	; 0
    27a8:	08 17       	cp	r16, r24
    27aa:	19 07       	cpc	r17, r25
    27ac:	a8 f4       	brcc	.+42     	; 0x27d8 <vfprintf+0x490>
    27ae:	b6 01       	movw	r22, r12
    27b0:	80 e2       	ldi	r24, 0x20	; 32
    27b2:	90 e0       	ldi	r25, 0x00	; 0
    27b4:	0e 94 67 16 	call	0x2cce	; 0x2cce <fputc>
    27b8:	fa 94       	dec	r15
    27ba:	f4 cf       	rjmp	.-24     	; 0x27a4 <vfprintf+0x45c>
    27bc:	f2 01       	movw	r30, r4
    27be:	37 fc       	sbrc	r3, 7
    27c0:	85 91       	lpm	r24, Z+
    27c2:	37 fe       	sbrs	r3, 7
    27c4:	81 91       	ld	r24, Z+
    27c6:	2f 01       	movw	r4, r30
    27c8:	b6 01       	movw	r22, r12
    27ca:	90 e0       	ldi	r25, 0x00	; 0
    27cc:	0e 94 67 16 	call	0x2cce	; 0x2cce <fputc>
    27d0:	f1 10       	cpse	r15, r1
    27d2:	fa 94       	dec	r15
    27d4:	01 50       	subi	r16, 0x01	; 1
    27d6:	11 09       	sbc	r17, r1
    27d8:	01 15       	cp	r16, r1
    27da:	11 05       	cpc	r17, r1
    27dc:	79 f7       	brne	.-34     	; 0x27bc <vfprintf+0x474>
    27de:	f8 c0       	rjmp	.+496    	; 0x29d0 <vfprintf+0x688>
    27e0:	84 36       	cpi	r24, 0x64	; 100
    27e2:	11 f0       	breq	.+4      	; 0x27e8 <vfprintf+0x4a0>
    27e4:	89 36       	cpi	r24, 0x69	; 105
    27e6:	59 f5       	brne	.+86     	; 0x283e <vfprintf+0x4f6>
    27e8:	52 01       	movw	r10, r4
    27ea:	27 ff       	sbrs	r18, 7
    27ec:	09 c0       	rjmp	.+18     	; 0x2800 <vfprintf+0x4b8>
    27ee:	f4 e0       	ldi	r31, 0x04	; 4
    27f0:	af 0e       	add	r10, r31
    27f2:	b1 1c       	adc	r11, r1
    27f4:	f2 01       	movw	r30, r4
    27f6:	60 81       	ld	r22, Z
    27f8:	71 81       	ldd	r23, Z+1	; 0x01
    27fa:	82 81       	ldd	r24, Z+2	; 0x02
    27fc:	93 81       	ldd	r25, Z+3	; 0x03
    27fe:	0a c0       	rjmp	.+20     	; 0x2814 <vfprintf+0x4cc>
    2800:	f2 e0       	ldi	r31, 0x02	; 2
    2802:	af 0e       	add	r10, r31
    2804:	b1 1c       	adc	r11, r1
    2806:	f2 01       	movw	r30, r4
    2808:	60 81       	ld	r22, Z
    280a:	71 81       	ldd	r23, Z+1	; 0x01
    280c:	07 2e       	mov	r0, r23
    280e:	00 0c       	add	r0, r0
    2810:	88 0b       	sbc	r24, r24
    2812:	99 0b       	sbc	r25, r25
    2814:	2f 76       	andi	r18, 0x6F	; 111
    2816:	32 2e       	mov	r3, r18
    2818:	97 ff       	sbrs	r25, 7
    281a:	09 c0       	rjmp	.+18     	; 0x282e <vfprintf+0x4e6>
    281c:	90 95       	com	r25
    281e:	80 95       	com	r24
    2820:	70 95       	com	r23
    2822:	61 95       	neg	r22
    2824:	7f 4f       	sbci	r23, 0xFF	; 255
    2826:	8f 4f       	sbci	r24, 0xFF	; 255
    2828:	9f 4f       	sbci	r25, 0xFF	; 255
    282a:	20 68       	ori	r18, 0x80	; 128
    282c:	32 2e       	mov	r3, r18
    282e:	2a e0       	ldi	r18, 0x0A	; 10
    2830:	30 e0       	ldi	r19, 0x00	; 0
    2832:	a3 01       	movw	r20, r6
    2834:	0e 94 9f 16 	call	0x2d3e	; 0x2d3e <__ultoa_invert>
    2838:	e8 2e       	mov	r14, r24
    283a:	e6 18       	sub	r14, r6
    283c:	3f c0       	rjmp	.+126    	; 0x28bc <vfprintf+0x574>
    283e:	02 2f       	mov	r16, r18
    2840:	85 37       	cpi	r24, 0x75	; 117
    2842:	21 f4       	brne	.+8      	; 0x284c <vfprintf+0x504>
    2844:	0f 7e       	andi	r16, 0xEF	; 239
    2846:	2a e0       	ldi	r18, 0x0A	; 10
    2848:	30 e0       	ldi	r19, 0x00	; 0
    284a:	1d c0       	rjmp	.+58     	; 0x2886 <vfprintf+0x53e>
    284c:	09 7f       	andi	r16, 0xF9	; 249
    284e:	8f 36       	cpi	r24, 0x6F	; 111
    2850:	91 f0       	breq	.+36     	; 0x2876 <vfprintf+0x52e>
    2852:	18 f4       	brcc	.+6      	; 0x285a <vfprintf+0x512>
    2854:	88 35       	cpi	r24, 0x58	; 88
    2856:	59 f0       	breq	.+22     	; 0x286e <vfprintf+0x526>
    2858:	c5 c0       	rjmp	.+394    	; 0x29e4 <vfprintf+0x69c>
    285a:	80 37       	cpi	r24, 0x70	; 112
    285c:	19 f0       	breq	.+6      	; 0x2864 <vfprintf+0x51c>
    285e:	88 37       	cpi	r24, 0x78	; 120
    2860:	11 f0       	breq	.+4      	; 0x2866 <vfprintf+0x51e>
    2862:	c0 c0       	rjmp	.+384    	; 0x29e4 <vfprintf+0x69c>
    2864:	00 61       	ori	r16, 0x10	; 16
    2866:	04 ff       	sbrs	r16, 4
    2868:	09 c0       	rjmp	.+18     	; 0x287c <vfprintf+0x534>
    286a:	04 60       	ori	r16, 0x04	; 4
    286c:	07 c0       	rjmp	.+14     	; 0x287c <vfprintf+0x534>
    286e:	24 ff       	sbrs	r18, 4
    2870:	08 c0       	rjmp	.+16     	; 0x2882 <vfprintf+0x53a>
    2872:	06 60       	ori	r16, 0x06	; 6
    2874:	06 c0       	rjmp	.+12     	; 0x2882 <vfprintf+0x53a>
    2876:	28 e0       	ldi	r18, 0x08	; 8
    2878:	30 e0       	ldi	r19, 0x00	; 0
    287a:	05 c0       	rjmp	.+10     	; 0x2886 <vfprintf+0x53e>
    287c:	20 e1       	ldi	r18, 0x10	; 16
    287e:	30 e0       	ldi	r19, 0x00	; 0
    2880:	02 c0       	rjmp	.+4      	; 0x2886 <vfprintf+0x53e>
    2882:	20 e1       	ldi	r18, 0x10	; 16
    2884:	32 e0       	ldi	r19, 0x02	; 2
    2886:	52 01       	movw	r10, r4
    2888:	07 ff       	sbrs	r16, 7
    288a:	09 c0       	rjmp	.+18     	; 0x289e <vfprintf+0x556>
    288c:	f4 e0       	ldi	r31, 0x04	; 4
    288e:	af 0e       	add	r10, r31
    2890:	b1 1c       	adc	r11, r1
    2892:	f2 01       	movw	r30, r4
    2894:	60 81       	ld	r22, Z
    2896:	71 81       	ldd	r23, Z+1	; 0x01
    2898:	82 81       	ldd	r24, Z+2	; 0x02
    289a:	93 81       	ldd	r25, Z+3	; 0x03
    289c:	08 c0       	rjmp	.+16     	; 0x28ae <vfprintf+0x566>
    289e:	f2 e0       	ldi	r31, 0x02	; 2
    28a0:	af 0e       	add	r10, r31
    28a2:	b1 1c       	adc	r11, r1
    28a4:	f2 01       	movw	r30, r4
    28a6:	60 81       	ld	r22, Z
    28a8:	71 81       	ldd	r23, Z+1	; 0x01
    28aa:	80 e0       	ldi	r24, 0x00	; 0
    28ac:	90 e0       	ldi	r25, 0x00	; 0
    28ae:	a3 01       	movw	r20, r6
    28b0:	0e 94 9f 16 	call	0x2d3e	; 0x2d3e <__ultoa_invert>
    28b4:	e8 2e       	mov	r14, r24
    28b6:	e6 18       	sub	r14, r6
    28b8:	0f 77       	andi	r16, 0x7F	; 127
    28ba:	30 2e       	mov	r3, r16
    28bc:	36 fe       	sbrs	r3, 6
    28be:	0b c0       	rjmp	.+22     	; 0x28d6 <vfprintf+0x58e>
    28c0:	33 2d       	mov	r19, r3
    28c2:	3e 7f       	andi	r19, 0xFE	; 254
    28c4:	e1 16       	cp	r14, r17
    28c6:	50 f4       	brcc	.+20     	; 0x28dc <vfprintf+0x594>
    28c8:	34 fe       	sbrs	r3, 4
    28ca:	0a c0       	rjmp	.+20     	; 0x28e0 <vfprintf+0x598>
    28cc:	32 fc       	sbrc	r3, 2
    28ce:	08 c0       	rjmp	.+16     	; 0x28e0 <vfprintf+0x598>
    28d0:	33 2d       	mov	r19, r3
    28d2:	3e 7e       	andi	r19, 0xEE	; 238
    28d4:	05 c0       	rjmp	.+10     	; 0x28e0 <vfprintf+0x598>
    28d6:	0e 2d       	mov	r16, r14
    28d8:	33 2d       	mov	r19, r3
    28da:	03 c0       	rjmp	.+6      	; 0x28e2 <vfprintf+0x59a>
    28dc:	0e 2d       	mov	r16, r14
    28de:	01 c0       	rjmp	.+2      	; 0x28e2 <vfprintf+0x59a>
    28e0:	01 2f       	mov	r16, r17
    28e2:	34 ff       	sbrs	r19, 4
    28e4:	0c c0       	rjmp	.+24     	; 0x28fe <vfprintf+0x5b6>
    28e6:	fe 01       	movw	r30, r28
    28e8:	ee 0d       	add	r30, r14
    28ea:	f1 1d       	adc	r31, r1
    28ec:	80 81       	ld	r24, Z
    28ee:	80 33       	cpi	r24, 0x30	; 48
    28f0:	11 f4       	brne	.+4      	; 0x28f6 <vfprintf+0x5ae>
    28f2:	39 7e       	andi	r19, 0xE9	; 233
    28f4:	08 c0       	rjmp	.+16     	; 0x2906 <vfprintf+0x5be>
    28f6:	32 ff       	sbrs	r19, 2
    28f8:	05 c0       	rjmp	.+10     	; 0x2904 <vfprintf+0x5bc>
    28fa:	0e 5f       	subi	r16, 0xFE	; 254
    28fc:	04 c0       	rjmp	.+8      	; 0x2906 <vfprintf+0x5be>
    28fe:	83 2f       	mov	r24, r19
    2900:	86 78       	andi	r24, 0x86	; 134
    2902:	09 f0       	breq	.+2      	; 0x2906 <vfprintf+0x5be>
    2904:	0f 5f       	subi	r16, 0xFF	; 255
    2906:	33 fd       	sbrc	r19, 3
    2908:	13 c0       	rjmp	.+38     	; 0x2930 <vfprintf+0x5e8>
    290a:	30 ff       	sbrs	r19, 0
    290c:	06 c0       	rjmp	.+12     	; 0x291a <vfprintf+0x5d2>
    290e:	1e 2d       	mov	r17, r14
    2910:	0f 15       	cp	r16, r15
    2912:	18 f4       	brcc	.+6      	; 0x291a <vfprintf+0x5d2>
    2914:	1f 0d       	add	r17, r15
    2916:	10 1b       	sub	r17, r16
    2918:	0f 2d       	mov	r16, r15
    291a:	0f 15       	cp	r16, r15
    291c:	68 f4       	brcc	.+26     	; 0x2938 <vfprintf+0x5f0>
    291e:	b6 01       	movw	r22, r12
    2920:	80 e2       	ldi	r24, 0x20	; 32
    2922:	90 e0       	ldi	r25, 0x00	; 0
    2924:	3b 8b       	std	Y+19, r19	; 0x13
    2926:	0e 94 67 16 	call	0x2cce	; 0x2cce <fputc>
    292a:	0f 5f       	subi	r16, 0xFF	; 255
    292c:	3b 89       	ldd	r19, Y+19	; 0x13
    292e:	f5 cf       	rjmp	.-22     	; 0x291a <vfprintf+0x5d2>
    2930:	0f 15       	cp	r16, r15
    2932:	10 f4       	brcc	.+4      	; 0x2938 <vfprintf+0x5f0>
    2934:	f0 1a       	sub	r15, r16
    2936:	01 c0       	rjmp	.+2      	; 0x293a <vfprintf+0x5f2>
    2938:	f1 2c       	mov	r15, r1
    293a:	34 ff       	sbrs	r19, 4
    293c:	12 c0       	rjmp	.+36     	; 0x2962 <vfprintf+0x61a>
    293e:	b6 01       	movw	r22, r12
    2940:	80 e3       	ldi	r24, 0x30	; 48
    2942:	90 e0       	ldi	r25, 0x00	; 0
    2944:	3b 8b       	std	Y+19, r19	; 0x13
    2946:	0e 94 67 16 	call	0x2cce	; 0x2cce <fputc>
    294a:	3b 89       	ldd	r19, Y+19	; 0x13
    294c:	32 ff       	sbrs	r19, 2
    294e:	17 c0       	rjmp	.+46     	; 0x297e <vfprintf+0x636>
    2950:	31 fd       	sbrc	r19, 1
    2952:	03 c0       	rjmp	.+6      	; 0x295a <vfprintf+0x612>
    2954:	88 e7       	ldi	r24, 0x78	; 120
    2956:	90 e0       	ldi	r25, 0x00	; 0
    2958:	02 c0       	rjmp	.+4      	; 0x295e <vfprintf+0x616>
    295a:	88 e5       	ldi	r24, 0x58	; 88
    295c:	90 e0       	ldi	r25, 0x00	; 0
    295e:	b6 01       	movw	r22, r12
    2960:	0c c0       	rjmp	.+24     	; 0x297a <vfprintf+0x632>
    2962:	83 2f       	mov	r24, r19
    2964:	86 78       	andi	r24, 0x86	; 134
    2966:	59 f0       	breq	.+22     	; 0x297e <vfprintf+0x636>
    2968:	31 ff       	sbrs	r19, 1
    296a:	02 c0       	rjmp	.+4      	; 0x2970 <vfprintf+0x628>
    296c:	8b e2       	ldi	r24, 0x2B	; 43
    296e:	01 c0       	rjmp	.+2      	; 0x2972 <vfprintf+0x62a>
    2970:	80 e2       	ldi	r24, 0x20	; 32
    2972:	37 fd       	sbrc	r19, 7
    2974:	8d e2       	ldi	r24, 0x2D	; 45
    2976:	b6 01       	movw	r22, r12
    2978:	90 e0       	ldi	r25, 0x00	; 0
    297a:	0e 94 67 16 	call	0x2cce	; 0x2cce <fputc>
    297e:	e1 16       	cp	r14, r17
    2980:	38 f4       	brcc	.+14     	; 0x2990 <vfprintf+0x648>
    2982:	b6 01       	movw	r22, r12
    2984:	80 e3       	ldi	r24, 0x30	; 48
    2986:	90 e0       	ldi	r25, 0x00	; 0
    2988:	0e 94 67 16 	call	0x2cce	; 0x2cce <fputc>
    298c:	11 50       	subi	r17, 0x01	; 1
    298e:	f7 cf       	rjmp	.-18     	; 0x297e <vfprintf+0x636>
    2990:	ea 94       	dec	r14
    2992:	f3 01       	movw	r30, r6
    2994:	ee 0d       	add	r30, r14
    2996:	f1 1d       	adc	r31, r1
    2998:	80 81       	ld	r24, Z
    299a:	b6 01       	movw	r22, r12
    299c:	90 e0       	ldi	r25, 0x00	; 0
    299e:	0e 94 67 16 	call	0x2cce	; 0x2cce <fputc>
    29a2:	e1 10       	cpse	r14, r1
    29a4:	f5 cf       	rjmp	.-22     	; 0x2990 <vfprintf+0x648>
    29a6:	14 c0       	rjmp	.+40     	; 0x29d0 <vfprintf+0x688>
    29a8:	f4 e0       	ldi	r31, 0x04	; 4
    29aa:	ff 15       	cp	r31, r15
    29ac:	58 f5       	brcc	.+86     	; 0x2a04 <vfprintf+0x6bc>
    29ae:	84 e0       	ldi	r24, 0x04	; 4
    29b0:	f8 1a       	sub	r15, r24
    29b2:	33 fe       	sbrs	r3, 3
    29b4:	1e c0       	rjmp	.+60     	; 0x29f2 <vfprintf+0x6aa>
    29b6:	21 10       	cpse	r2, r1
    29b8:	26 c0       	rjmp	.+76     	; 0x2a06 <vfprintf+0x6be>
    29ba:	03 ff       	sbrs	r16, 3
    29bc:	2a c0       	rjmp	.+84     	; 0x2a12 <vfprintf+0x6ca>
    29be:	05 ec       	ldi	r16, 0xC5	; 197
    29c0:	15 e0       	ldi	r17, 0x05	; 5
    29c2:	f3 2d       	mov	r31, r3
    29c4:	f0 71       	andi	r31, 0x10	; 16
    29c6:	3f 2e       	mov	r3, r31
    29c8:	f8 01       	movw	r30, r16
    29ca:	84 91       	lpm	r24, Z
    29cc:	81 11       	cpse	r24, r1
    29ce:	24 c0       	rjmp	.+72     	; 0x2a18 <vfprintf+0x6d0>
    29d0:	ff 20       	and	r15, r15
    29d2:	09 f4       	brne	.+2      	; 0x29d6 <vfprintf+0x68e>
    29d4:	e5 cc       	rjmp	.-1590   	; 0x23a0 <vfprintf+0x58>
    29d6:	b6 01       	movw	r22, r12
    29d8:	80 e2       	ldi	r24, 0x20	; 32
    29da:	90 e0       	ldi	r25, 0x00	; 0
    29dc:	0e 94 67 16 	call	0x2cce	; 0x2cce <fputc>
    29e0:	fa 94       	dec	r15
    29e2:	f6 cf       	rjmp	.-20     	; 0x29d0 <vfprintf+0x688>
    29e4:	f6 01       	movw	r30, r12
    29e6:	86 81       	ldd	r24, Z+6	; 0x06
    29e8:	97 81       	ldd	r25, Z+7	; 0x07
    29ea:	26 c0       	rjmp	.+76     	; 0x2a38 <vfprintf+0x6f0>
    29ec:	8f ef       	ldi	r24, 0xFF	; 255
    29ee:	9f ef       	ldi	r25, 0xFF	; 255
    29f0:	23 c0       	rjmp	.+70     	; 0x2a38 <vfprintf+0x6f0>
    29f2:	b6 01       	movw	r22, r12
    29f4:	80 e2       	ldi	r24, 0x20	; 32
    29f6:	90 e0       	ldi	r25, 0x00	; 0
    29f8:	0e 94 67 16 	call	0x2cce	; 0x2cce <fputc>
    29fc:	fa 94       	dec	r15
    29fe:	f1 10       	cpse	r15, r1
    2a00:	f8 cf       	rjmp	.-16     	; 0x29f2 <vfprintf+0x6aa>
    2a02:	d9 cf       	rjmp	.-78     	; 0x29b6 <vfprintf+0x66e>
    2a04:	f1 2c       	mov	r15, r1
    2a06:	b6 01       	movw	r22, r12
    2a08:	82 2d       	mov	r24, r2
    2a0a:	90 e0       	ldi	r25, 0x00	; 0
    2a0c:	0e 94 67 16 	call	0x2cce	; 0x2cce <fputc>
    2a10:	d4 cf       	rjmp	.-88     	; 0x29ba <vfprintf+0x672>
    2a12:	09 ec       	ldi	r16, 0xC9	; 201
    2a14:	15 e0       	ldi	r17, 0x05	; 5
    2a16:	d5 cf       	rjmp	.-86     	; 0x29c2 <vfprintf+0x67a>
    2a18:	31 10       	cpse	r3, r1
    2a1a:	80 52       	subi	r24, 0x20	; 32
    2a1c:	b6 01       	movw	r22, r12
    2a1e:	90 e0       	ldi	r25, 0x00	; 0
    2a20:	0e 94 67 16 	call	0x2cce	; 0x2cce <fputc>
    2a24:	0f 5f       	subi	r16, 0xFF	; 255
    2a26:	1f 4f       	sbci	r17, 0xFF	; 255
    2a28:	cf cf       	rjmp	.-98     	; 0x29c8 <vfprintf+0x680>
    2a2a:	23 e0       	ldi	r18, 0x03	; 3
    2a2c:	2f 15       	cp	r18, r15
    2a2e:	10 f4       	brcc	.+4      	; 0x2a34 <vfprintf+0x6ec>
    2a30:	83 e0       	ldi	r24, 0x03	; 3
    2a32:	be cf       	rjmp	.-132    	; 0x29b0 <vfprintf+0x668>
    2a34:	f1 2c       	mov	r15, r1
    2a36:	c1 cf       	rjmp	.-126    	; 0x29ba <vfprintf+0x672>
    2a38:	63 96       	adiw	r28, 0x13	; 19
    2a3a:	e2 e1       	ldi	r30, 0x12	; 18
    2a3c:	0c 94 4d 15 	jmp	0x2a9a	; 0x2a9a <__epilogue_restores__>

00002a40 <__divmodhi4>:
    2a40:	97 fb       	bst	r25, 7
    2a42:	07 2e       	mov	r0, r23
    2a44:	16 f4       	brtc	.+4      	; 0x2a4a <__divmodhi4+0xa>
    2a46:	00 94       	com	r0
    2a48:	07 d0       	rcall	.+14     	; 0x2a58 <__divmodhi4_neg1>
    2a4a:	77 fd       	sbrc	r23, 7
    2a4c:	09 d0       	rcall	.+18     	; 0x2a60 <__divmodhi4_neg2>
    2a4e:	0e 94 65 15 	call	0x2aca	; 0x2aca <__udivmodhi4>
    2a52:	07 fc       	sbrc	r0, 7
    2a54:	05 d0       	rcall	.+10     	; 0x2a60 <__divmodhi4_neg2>
    2a56:	3e f4       	brtc	.+14     	; 0x2a66 <__divmodhi4_exit>

00002a58 <__divmodhi4_neg1>:
    2a58:	90 95       	com	r25
    2a5a:	81 95       	neg	r24
    2a5c:	9f 4f       	sbci	r25, 0xFF	; 255
    2a5e:	08 95       	ret

00002a60 <__divmodhi4_neg2>:
    2a60:	70 95       	com	r23
    2a62:	61 95       	neg	r22
    2a64:	7f 4f       	sbci	r23, 0xFF	; 255

00002a66 <__divmodhi4_exit>:
    2a66:	08 95       	ret

00002a68 <__prologue_saves__>:
    2a68:	2f 92       	push	r2
    2a6a:	3f 92       	push	r3
    2a6c:	4f 92       	push	r4
    2a6e:	5f 92       	push	r5
    2a70:	6f 92       	push	r6
    2a72:	7f 92       	push	r7
    2a74:	8f 92       	push	r8
    2a76:	9f 92       	push	r9
    2a78:	af 92       	push	r10
    2a7a:	bf 92       	push	r11
    2a7c:	cf 92       	push	r12
    2a7e:	df 92       	push	r13
    2a80:	ef 92       	push	r14
    2a82:	ff 92       	push	r15
    2a84:	0f 93       	push	r16
    2a86:	1f 93       	push	r17
    2a88:	cf 93       	push	r28
    2a8a:	df 93       	push	r29
    2a8c:	cd b7       	in	r28, 0x3d	; 61
    2a8e:	de b7       	in	r29, 0x3e	; 62
    2a90:	ca 1b       	sub	r28, r26
    2a92:	db 0b       	sbc	r29, r27
    2a94:	cd bf       	out	0x3d, r28	; 61
    2a96:	de bf       	out	0x3e, r29	; 62
    2a98:	09 94       	ijmp

00002a9a <__epilogue_restores__>:
    2a9a:	2a 88       	ldd	r2, Y+18	; 0x12
    2a9c:	39 88       	ldd	r3, Y+17	; 0x11
    2a9e:	48 88       	ldd	r4, Y+16	; 0x10
    2aa0:	5f 84       	ldd	r5, Y+15	; 0x0f
    2aa2:	6e 84       	ldd	r6, Y+14	; 0x0e
    2aa4:	7d 84       	ldd	r7, Y+13	; 0x0d
    2aa6:	8c 84       	ldd	r8, Y+12	; 0x0c
    2aa8:	9b 84       	ldd	r9, Y+11	; 0x0b
    2aaa:	aa 84       	ldd	r10, Y+10	; 0x0a
    2aac:	b9 84       	ldd	r11, Y+9	; 0x09
    2aae:	c8 84       	ldd	r12, Y+8	; 0x08
    2ab0:	df 80       	ldd	r13, Y+7	; 0x07
    2ab2:	ee 80       	ldd	r14, Y+6	; 0x06
    2ab4:	fd 80       	ldd	r15, Y+5	; 0x05
    2ab6:	0c 81       	ldd	r16, Y+4	; 0x04
    2ab8:	1b 81       	ldd	r17, Y+3	; 0x03
    2aba:	aa 81       	ldd	r26, Y+2	; 0x02
    2abc:	b9 81       	ldd	r27, Y+1	; 0x01
    2abe:	ce 0f       	add	r28, r30
    2ac0:	d1 1d       	adc	r29, r1
    2ac2:	cd bf       	out	0x3d, r28	; 61
    2ac4:	de bf       	out	0x3e, r29	; 62
    2ac6:	ed 01       	movw	r28, r26
    2ac8:	08 95       	ret

00002aca <__udivmodhi4>:
    2aca:	aa 1b       	sub	r26, r26
    2acc:	bb 1b       	sub	r27, r27
    2ace:	51 e1       	ldi	r21, 0x11	; 17
    2ad0:	07 c0       	rjmp	.+14     	; 0x2ae0 <__udivmodhi4_ep>

00002ad2 <__udivmodhi4_loop>:
    2ad2:	aa 1f       	adc	r26, r26
    2ad4:	bb 1f       	adc	r27, r27
    2ad6:	a6 17       	cp	r26, r22
    2ad8:	b7 07       	cpc	r27, r23
    2ada:	10 f0       	brcs	.+4      	; 0x2ae0 <__udivmodhi4_ep>
    2adc:	a6 1b       	sub	r26, r22
    2ade:	b7 0b       	sbc	r27, r23

00002ae0 <__udivmodhi4_ep>:
    2ae0:	88 1f       	adc	r24, r24
    2ae2:	99 1f       	adc	r25, r25
    2ae4:	5a 95       	dec	r21
    2ae6:	a9 f7       	brne	.-22     	; 0x2ad2 <__udivmodhi4_loop>
    2ae8:	80 95       	com	r24
    2aea:	90 95       	com	r25
    2aec:	bc 01       	movw	r22, r24
    2aee:	cd 01       	movw	r24, r26
    2af0:	08 95       	ret

00002af2 <__ftoa_engine>:
    2af2:	28 30       	cpi	r18, 0x08	; 8
    2af4:	08 f0       	brcs	.+2      	; 0x2af8 <__ftoa_engine+0x6>
    2af6:	27 e0       	ldi	r18, 0x07	; 7
    2af8:	33 27       	eor	r19, r19
    2afa:	da 01       	movw	r26, r20
    2afc:	99 0f       	add	r25, r25
    2afe:	31 1d       	adc	r19, r1
    2b00:	87 fd       	sbrc	r24, 7
    2b02:	91 60       	ori	r25, 0x01	; 1
    2b04:	00 96       	adiw	r24, 0x00	; 0
    2b06:	61 05       	cpc	r22, r1
    2b08:	71 05       	cpc	r23, r1
    2b0a:	39 f4       	brne	.+14     	; 0x2b1a <__ftoa_engine+0x28>
    2b0c:	32 60       	ori	r19, 0x02	; 2
    2b0e:	2e 5f       	subi	r18, 0xFE	; 254
    2b10:	3d 93       	st	X+, r19
    2b12:	30 e3       	ldi	r19, 0x30	; 48
    2b14:	2a 95       	dec	r18
    2b16:	e1 f7       	brne	.-8      	; 0x2b10 <__ftoa_engine+0x1e>
    2b18:	08 95       	ret
    2b1a:	9f 3f       	cpi	r25, 0xFF	; 255
    2b1c:	30 f0       	brcs	.+12     	; 0x2b2a <__ftoa_engine+0x38>
    2b1e:	80 38       	cpi	r24, 0x80	; 128
    2b20:	71 05       	cpc	r23, r1
    2b22:	61 05       	cpc	r22, r1
    2b24:	09 f0       	breq	.+2      	; 0x2b28 <__ftoa_engine+0x36>
    2b26:	3c 5f       	subi	r19, 0xFC	; 252
    2b28:	3c 5f       	subi	r19, 0xFC	; 252
    2b2a:	3d 93       	st	X+, r19
    2b2c:	91 30       	cpi	r25, 0x01	; 1
    2b2e:	08 f0       	brcs	.+2      	; 0x2b32 <__ftoa_engine+0x40>
    2b30:	80 68       	ori	r24, 0x80	; 128
    2b32:	91 1d       	adc	r25, r1
    2b34:	df 93       	push	r29
    2b36:	cf 93       	push	r28
    2b38:	1f 93       	push	r17
    2b3a:	0f 93       	push	r16
    2b3c:	ff 92       	push	r15
    2b3e:	ef 92       	push	r14
    2b40:	19 2f       	mov	r17, r25
    2b42:	98 7f       	andi	r25, 0xF8	; 248
    2b44:	96 95       	lsr	r25
    2b46:	e9 2f       	mov	r30, r25
    2b48:	96 95       	lsr	r25
    2b4a:	96 95       	lsr	r25
    2b4c:	e9 0f       	add	r30, r25
    2b4e:	ff 27       	eor	r31, r31
    2b50:	e9 5d       	subi	r30, 0xD9	; 217
    2b52:	f9 4f       	sbci	r31, 0xF9	; 249
    2b54:	99 27       	eor	r25, r25
    2b56:	33 27       	eor	r19, r19
    2b58:	ee 24       	eor	r14, r14
    2b5a:	ff 24       	eor	r15, r15
    2b5c:	a7 01       	movw	r20, r14
    2b5e:	e7 01       	movw	r28, r14
    2b60:	05 90       	lpm	r0, Z+
    2b62:	08 94       	sec
    2b64:	07 94       	ror	r0
    2b66:	28 f4       	brcc	.+10     	; 0x2b72 <__ftoa_engine+0x80>
    2b68:	36 0f       	add	r19, r22
    2b6a:	e7 1e       	adc	r14, r23
    2b6c:	f8 1e       	adc	r15, r24
    2b6e:	49 1f       	adc	r20, r25
    2b70:	51 1d       	adc	r21, r1
    2b72:	66 0f       	add	r22, r22
    2b74:	77 1f       	adc	r23, r23
    2b76:	88 1f       	adc	r24, r24
    2b78:	99 1f       	adc	r25, r25
    2b7a:	06 94       	lsr	r0
    2b7c:	a1 f7       	brne	.-24     	; 0x2b66 <__ftoa_engine+0x74>
    2b7e:	05 90       	lpm	r0, Z+
    2b80:	07 94       	ror	r0
    2b82:	28 f4       	brcc	.+10     	; 0x2b8e <__ftoa_engine+0x9c>
    2b84:	e7 0e       	add	r14, r23
    2b86:	f8 1e       	adc	r15, r24
    2b88:	49 1f       	adc	r20, r25
    2b8a:	56 1f       	adc	r21, r22
    2b8c:	c1 1d       	adc	r28, r1
    2b8e:	77 0f       	add	r23, r23
    2b90:	88 1f       	adc	r24, r24
    2b92:	99 1f       	adc	r25, r25
    2b94:	66 1f       	adc	r22, r22
    2b96:	06 94       	lsr	r0
    2b98:	a1 f7       	brne	.-24     	; 0x2b82 <__ftoa_engine+0x90>
    2b9a:	05 90       	lpm	r0, Z+
    2b9c:	07 94       	ror	r0
    2b9e:	28 f4       	brcc	.+10     	; 0x2baa <__ftoa_engine+0xb8>
    2ba0:	f8 0e       	add	r15, r24
    2ba2:	49 1f       	adc	r20, r25
    2ba4:	56 1f       	adc	r21, r22
    2ba6:	c7 1f       	adc	r28, r23
    2ba8:	d1 1d       	adc	r29, r1
    2baa:	88 0f       	add	r24, r24
    2bac:	99 1f       	adc	r25, r25
    2bae:	66 1f       	adc	r22, r22
    2bb0:	77 1f       	adc	r23, r23
    2bb2:	06 94       	lsr	r0
    2bb4:	a1 f7       	brne	.-24     	; 0x2b9e <__ftoa_engine+0xac>
    2bb6:	05 90       	lpm	r0, Z+
    2bb8:	07 94       	ror	r0
    2bba:	20 f4       	brcc	.+8      	; 0x2bc4 <__ftoa_engine+0xd2>
    2bbc:	49 0f       	add	r20, r25
    2bbe:	56 1f       	adc	r21, r22
    2bc0:	c7 1f       	adc	r28, r23
    2bc2:	d8 1f       	adc	r29, r24
    2bc4:	99 0f       	add	r25, r25
    2bc6:	66 1f       	adc	r22, r22
    2bc8:	77 1f       	adc	r23, r23
    2bca:	88 1f       	adc	r24, r24
    2bcc:	06 94       	lsr	r0
    2bce:	a9 f7       	brne	.-22     	; 0x2bba <__ftoa_engine+0xc8>
    2bd0:	84 91       	lpm	r24, Z
    2bd2:	10 95       	com	r17
    2bd4:	17 70       	andi	r17, 0x07	; 7
    2bd6:	41 f0       	breq	.+16     	; 0x2be8 <__ftoa_engine+0xf6>
    2bd8:	d6 95       	lsr	r29
    2bda:	c7 95       	ror	r28
    2bdc:	57 95       	ror	r21
    2bde:	47 95       	ror	r20
    2be0:	f7 94       	ror	r15
    2be2:	e7 94       	ror	r14
    2be4:	1a 95       	dec	r17
    2be6:	c1 f7       	brne	.-16     	; 0x2bd8 <__ftoa_engine+0xe6>
    2be8:	ed ec       	ldi	r30, 0xCD	; 205
    2bea:	f5 e0       	ldi	r31, 0x05	; 5
    2bec:	68 94       	set
    2bee:	15 90       	lpm	r1, Z+
    2bf0:	15 91       	lpm	r17, Z+
    2bf2:	35 91       	lpm	r19, Z+
    2bf4:	65 91       	lpm	r22, Z+
    2bf6:	95 91       	lpm	r25, Z+
    2bf8:	05 90       	lpm	r0, Z+
    2bfa:	7f e2       	ldi	r23, 0x2F	; 47
    2bfc:	73 95       	inc	r23
    2bfe:	e1 18       	sub	r14, r1
    2c00:	f1 0a       	sbc	r15, r17
    2c02:	43 0b       	sbc	r20, r19
    2c04:	56 0b       	sbc	r21, r22
    2c06:	c9 0b       	sbc	r28, r25
    2c08:	d0 09       	sbc	r29, r0
    2c0a:	c0 f7       	brcc	.-16     	; 0x2bfc <__ftoa_engine+0x10a>
    2c0c:	e1 0c       	add	r14, r1
    2c0e:	f1 1e       	adc	r15, r17
    2c10:	43 1f       	adc	r20, r19
    2c12:	56 1f       	adc	r21, r22
    2c14:	c9 1f       	adc	r28, r25
    2c16:	d0 1d       	adc	r29, r0
    2c18:	7e f4       	brtc	.+30     	; 0x2c38 <__ftoa_engine+0x146>
    2c1a:	70 33       	cpi	r23, 0x30	; 48
    2c1c:	11 f4       	brne	.+4      	; 0x2c22 <__ftoa_engine+0x130>
    2c1e:	8a 95       	dec	r24
    2c20:	e6 cf       	rjmp	.-52     	; 0x2bee <__ftoa_engine+0xfc>
    2c22:	e8 94       	clt
    2c24:	01 50       	subi	r16, 0x01	; 1
    2c26:	30 f0       	brcs	.+12     	; 0x2c34 <__ftoa_engine+0x142>
    2c28:	08 0f       	add	r16, r24
    2c2a:	0a f4       	brpl	.+2      	; 0x2c2e <__ftoa_engine+0x13c>
    2c2c:	00 27       	eor	r16, r16
    2c2e:	02 17       	cp	r16, r18
    2c30:	08 f4       	brcc	.+2      	; 0x2c34 <__ftoa_engine+0x142>
    2c32:	20 2f       	mov	r18, r16
    2c34:	23 95       	inc	r18
    2c36:	02 2f       	mov	r16, r18
    2c38:	7a 33       	cpi	r23, 0x3A	; 58
    2c3a:	28 f0       	brcs	.+10     	; 0x2c46 <__ftoa_engine+0x154>
    2c3c:	79 e3       	ldi	r23, 0x39	; 57
    2c3e:	7d 93       	st	X+, r23
    2c40:	2a 95       	dec	r18
    2c42:	e9 f7       	brne	.-6      	; 0x2c3e <__ftoa_engine+0x14c>
    2c44:	10 c0       	rjmp	.+32     	; 0x2c66 <__ftoa_engine+0x174>
    2c46:	7d 93       	st	X+, r23
    2c48:	2a 95       	dec	r18
    2c4a:	89 f6       	brne	.-94     	; 0x2bee <__ftoa_engine+0xfc>
    2c4c:	06 94       	lsr	r0
    2c4e:	97 95       	ror	r25
    2c50:	67 95       	ror	r22
    2c52:	37 95       	ror	r19
    2c54:	17 95       	ror	r17
    2c56:	17 94       	ror	r1
    2c58:	e1 18       	sub	r14, r1
    2c5a:	f1 0a       	sbc	r15, r17
    2c5c:	43 0b       	sbc	r20, r19
    2c5e:	56 0b       	sbc	r21, r22
    2c60:	c9 0b       	sbc	r28, r25
    2c62:	d0 09       	sbc	r29, r0
    2c64:	98 f0       	brcs	.+38     	; 0x2c8c <__ftoa_engine+0x19a>
    2c66:	23 95       	inc	r18
    2c68:	7e 91       	ld	r23, -X
    2c6a:	73 95       	inc	r23
    2c6c:	7a 33       	cpi	r23, 0x3A	; 58
    2c6e:	08 f0       	brcs	.+2      	; 0x2c72 <__ftoa_engine+0x180>
    2c70:	70 e3       	ldi	r23, 0x30	; 48
    2c72:	7c 93       	st	X, r23
    2c74:	20 13       	cpse	r18, r16
    2c76:	b8 f7       	brcc	.-18     	; 0x2c66 <__ftoa_engine+0x174>
    2c78:	7e 91       	ld	r23, -X
    2c7a:	70 61       	ori	r23, 0x10	; 16
    2c7c:	7d 93       	st	X+, r23
    2c7e:	30 f0       	brcs	.+12     	; 0x2c8c <__ftoa_engine+0x19a>
    2c80:	83 95       	inc	r24
    2c82:	71 e3       	ldi	r23, 0x31	; 49
    2c84:	7d 93       	st	X+, r23
    2c86:	70 e3       	ldi	r23, 0x30	; 48
    2c88:	2a 95       	dec	r18
    2c8a:	e1 f7       	brne	.-8      	; 0x2c84 <__ftoa_engine+0x192>
    2c8c:	11 24       	eor	r1, r1
    2c8e:	ef 90       	pop	r14
    2c90:	ff 90       	pop	r15
    2c92:	0f 91       	pop	r16
    2c94:	1f 91       	pop	r17
    2c96:	cf 91       	pop	r28
    2c98:	df 91       	pop	r29
    2c9a:	99 27       	eor	r25, r25
    2c9c:	87 fd       	sbrc	r24, 7
    2c9e:	90 95       	com	r25
    2ca0:	08 95       	ret

00002ca2 <strnlen_P>:
    2ca2:	fc 01       	movw	r30, r24
    2ca4:	05 90       	lpm	r0, Z+
    2ca6:	61 50       	subi	r22, 0x01	; 1
    2ca8:	70 40       	sbci	r23, 0x00	; 0
    2caa:	01 10       	cpse	r0, r1
    2cac:	d8 f7       	brcc	.-10     	; 0x2ca4 <strnlen_P+0x2>
    2cae:	80 95       	com	r24
    2cb0:	90 95       	com	r25
    2cb2:	8e 0f       	add	r24, r30
    2cb4:	9f 1f       	adc	r25, r31
    2cb6:	08 95       	ret

00002cb8 <strnlen>:
    2cb8:	fc 01       	movw	r30, r24
    2cba:	61 50       	subi	r22, 0x01	; 1
    2cbc:	70 40       	sbci	r23, 0x00	; 0
    2cbe:	01 90       	ld	r0, Z+
    2cc0:	01 10       	cpse	r0, r1
    2cc2:	d8 f7       	brcc	.-10     	; 0x2cba <strnlen+0x2>
    2cc4:	80 95       	com	r24
    2cc6:	90 95       	com	r25
    2cc8:	8e 0f       	add	r24, r30
    2cca:	9f 1f       	adc	r25, r31
    2ccc:	08 95       	ret

00002cce <fputc>:
    2cce:	0f 93       	push	r16
    2cd0:	1f 93       	push	r17
    2cd2:	cf 93       	push	r28
    2cd4:	df 93       	push	r29
    2cd6:	fb 01       	movw	r30, r22
    2cd8:	23 81       	ldd	r18, Z+3	; 0x03
    2cda:	21 fd       	sbrc	r18, 1
    2cdc:	03 c0       	rjmp	.+6      	; 0x2ce4 <fputc+0x16>
    2cde:	8f ef       	ldi	r24, 0xFF	; 255
    2ce0:	9f ef       	ldi	r25, 0xFF	; 255
    2ce2:	28 c0       	rjmp	.+80     	; 0x2d34 <fputc+0x66>
    2ce4:	22 ff       	sbrs	r18, 2
    2ce6:	16 c0       	rjmp	.+44     	; 0x2d14 <fputc+0x46>
    2ce8:	46 81       	ldd	r20, Z+6	; 0x06
    2cea:	57 81       	ldd	r21, Z+7	; 0x07
    2cec:	24 81       	ldd	r18, Z+4	; 0x04
    2cee:	35 81       	ldd	r19, Z+5	; 0x05
    2cf0:	42 17       	cp	r20, r18
    2cf2:	53 07       	cpc	r21, r19
    2cf4:	44 f4       	brge	.+16     	; 0x2d06 <fputc+0x38>
    2cf6:	a0 81       	ld	r26, Z
    2cf8:	b1 81       	ldd	r27, Z+1	; 0x01
    2cfa:	9d 01       	movw	r18, r26
    2cfc:	2f 5f       	subi	r18, 0xFF	; 255
    2cfe:	3f 4f       	sbci	r19, 0xFF	; 255
    2d00:	20 83       	st	Z, r18
    2d02:	31 83       	std	Z+1, r19	; 0x01
    2d04:	8c 93       	st	X, r24
    2d06:	26 81       	ldd	r18, Z+6	; 0x06
    2d08:	37 81       	ldd	r19, Z+7	; 0x07
    2d0a:	2f 5f       	subi	r18, 0xFF	; 255
    2d0c:	3f 4f       	sbci	r19, 0xFF	; 255
    2d0e:	26 83       	std	Z+6, r18	; 0x06
    2d10:	37 83       	std	Z+7, r19	; 0x07
    2d12:	10 c0       	rjmp	.+32     	; 0x2d34 <fputc+0x66>
    2d14:	eb 01       	movw	r28, r22
    2d16:	09 2f       	mov	r16, r25
    2d18:	18 2f       	mov	r17, r24
    2d1a:	00 84       	ldd	r0, Z+8	; 0x08
    2d1c:	f1 85       	ldd	r31, Z+9	; 0x09
    2d1e:	e0 2d       	mov	r30, r0
    2d20:	09 95       	icall
    2d22:	89 2b       	or	r24, r25
    2d24:	e1 f6       	brne	.-72     	; 0x2cde <fputc+0x10>
    2d26:	8e 81       	ldd	r24, Y+6	; 0x06
    2d28:	9f 81       	ldd	r25, Y+7	; 0x07
    2d2a:	01 96       	adiw	r24, 0x01	; 1
    2d2c:	8e 83       	std	Y+6, r24	; 0x06
    2d2e:	9f 83       	std	Y+7, r25	; 0x07
    2d30:	81 2f       	mov	r24, r17
    2d32:	90 2f       	mov	r25, r16
    2d34:	df 91       	pop	r29
    2d36:	cf 91       	pop	r28
    2d38:	1f 91       	pop	r17
    2d3a:	0f 91       	pop	r16
    2d3c:	08 95       	ret

00002d3e <__ultoa_invert>:
    2d3e:	fa 01       	movw	r30, r20
    2d40:	aa 27       	eor	r26, r26
    2d42:	28 30       	cpi	r18, 0x08	; 8
    2d44:	51 f1       	breq	.+84     	; 0x2d9a <__ultoa_invert+0x5c>
    2d46:	20 31       	cpi	r18, 0x10	; 16
    2d48:	81 f1       	breq	.+96     	; 0x2daa <__ultoa_invert+0x6c>
    2d4a:	e8 94       	clt
    2d4c:	6f 93       	push	r22
    2d4e:	6e 7f       	andi	r22, 0xFE	; 254
    2d50:	6e 5f       	subi	r22, 0xFE	; 254
    2d52:	7f 4f       	sbci	r23, 0xFF	; 255
    2d54:	8f 4f       	sbci	r24, 0xFF	; 255
    2d56:	9f 4f       	sbci	r25, 0xFF	; 255
    2d58:	af 4f       	sbci	r26, 0xFF	; 255
    2d5a:	b1 e0       	ldi	r27, 0x01	; 1
    2d5c:	3e d0       	rcall	.+124    	; 0x2dda <__ultoa_invert+0x9c>
    2d5e:	b4 e0       	ldi	r27, 0x04	; 4
    2d60:	3c d0       	rcall	.+120    	; 0x2dda <__ultoa_invert+0x9c>
    2d62:	67 0f       	add	r22, r23
    2d64:	78 1f       	adc	r23, r24
    2d66:	89 1f       	adc	r24, r25
    2d68:	9a 1f       	adc	r25, r26
    2d6a:	a1 1d       	adc	r26, r1
    2d6c:	68 0f       	add	r22, r24
    2d6e:	79 1f       	adc	r23, r25
    2d70:	8a 1f       	adc	r24, r26
    2d72:	91 1d       	adc	r25, r1
    2d74:	a1 1d       	adc	r26, r1
    2d76:	6a 0f       	add	r22, r26
    2d78:	71 1d       	adc	r23, r1
    2d7a:	81 1d       	adc	r24, r1
    2d7c:	91 1d       	adc	r25, r1
    2d7e:	a1 1d       	adc	r26, r1
    2d80:	20 d0       	rcall	.+64     	; 0x2dc2 <__ultoa_invert+0x84>
    2d82:	09 f4       	brne	.+2      	; 0x2d86 <__ultoa_invert+0x48>
    2d84:	68 94       	set
    2d86:	3f 91       	pop	r19
    2d88:	2a e0       	ldi	r18, 0x0A	; 10
    2d8a:	26 9f       	mul	r18, r22
    2d8c:	11 24       	eor	r1, r1
    2d8e:	30 19       	sub	r19, r0
    2d90:	30 5d       	subi	r19, 0xD0	; 208
    2d92:	31 93       	st	Z+, r19
    2d94:	de f6       	brtc	.-74     	; 0x2d4c <__ultoa_invert+0xe>
    2d96:	cf 01       	movw	r24, r30
    2d98:	08 95       	ret
    2d9a:	46 2f       	mov	r20, r22
    2d9c:	47 70       	andi	r20, 0x07	; 7
    2d9e:	40 5d       	subi	r20, 0xD0	; 208
    2da0:	41 93       	st	Z+, r20
    2da2:	b3 e0       	ldi	r27, 0x03	; 3
    2da4:	0f d0       	rcall	.+30     	; 0x2dc4 <__ultoa_invert+0x86>
    2da6:	c9 f7       	brne	.-14     	; 0x2d9a <__ultoa_invert+0x5c>
    2da8:	f6 cf       	rjmp	.-20     	; 0x2d96 <__ultoa_invert+0x58>
    2daa:	46 2f       	mov	r20, r22
    2dac:	4f 70       	andi	r20, 0x0F	; 15
    2dae:	40 5d       	subi	r20, 0xD0	; 208
    2db0:	4a 33       	cpi	r20, 0x3A	; 58
    2db2:	18 f0       	brcs	.+6      	; 0x2dba <__ultoa_invert+0x7c>
    2db4:	49 5d       	subi	r20, 0xD9	; 217
    2db6:	31 fd       	sbrc	r19, 1
    2db8:	40 52       	subi	r20, 0x20	; 32
    2dba:	41 93       	st	Z+, r20
    2dbc:	02 d0       	rcall	.+4      	; 0x2dc2 <__ultoa_invert+0x84>
    2dbe:	a9 f7       	brne	.-22     	; 0x2daa <__ultoa_invert+0x6c>
    2dc0:	ea cf       	rjmp	.-44     	; 0x2d96 <__ultoa_invert+0x58>
    2dc2:	b4 e0       	ldi	r27, 0x04	; 4
    2dc4:	a6 95       	lsr	r26
    2dc6:	97 95       	ror	r25
    2dc8:	87 95       	ror	r24
    2dca:	77 95       	ror	r23
    2dcc:	67 95       	ror	r22
    2dce:	ba 95       	dec	r27
    2dd0:	c9 f7       	brne	.-14     	; 0x2dc4 <__ultoa_invert+0x86>
    2dd2:	00 97       	sbiw	r24, 0x00	; 0
    2dd4:	61 05       	cpc	r22, r1
    2dd6:	71 05       	cpc	r23, r1
    2dd8:	08 95       	ret
    2dda:	9b 01       	movw	r18, r22
    2ddc:	ac 01       	movw	r20, r24
    2dde:	0a 2e       	mov	r0, r26
    2de0:	06 94       	lsr	r0
    2de2:	57 95       	ror	r21
    2de4:	47 95       	ror	r20
    2de6:	37 95       	ror	r19
    2de8:	27 95       	ror	r18
    2dea:	ba 95       	dec	r27
    2dec:	c9 f7       	brne	.-14     	; 0x2de0 <__ultoa_invert+0xa2>
    2dee:	62 0f       	add	r22, r18
    2df0:	73 1f       	adc	r23, r19
    2df2:	84 1f       	adc	r24, r20
    2df4:	95 1f       	adc	r25, r21
    2df6:	a0 1d       	adc	r26, r0
    2df8:	08 95       	ret

00002dfa <_exit>:
    2dfa:	f8 94       	cli

00002dfc <__stop_program>:
    2dfc:	ff cf       	rjmp	.-2      	; 0x2dfc <__stop_program>
